Certificate:
    Data:
        Version: 3 (0x2)
        Serial Number:
            59:c3:70:90:0c:ac:30:5c:8f:ab:e3:19:d4:03:6e:4d:1f:b0:26:07
        Signature Algorithm: sha256WithRSAEncryption
        Issuer: C=DE, O=OSS Release, OU=Development, CN=trustme Backend Sub CA
        Validity
            Not Before: Jul 29 20:24:13 2021 GMT
            Not After : Jul 28 20:24:13 2024 GMT
        Subject: C=DE, O=OSS Release, OU=Development, CN=trustme Backend Certificate
        Subject Public Key Info:
            Public Key Algorithm: rsaEncryption
                RSA Public-Key: (4096 bit)
                Modulus:
                    00:a7:e0:3b:b0:cf:a5:a8:34:ee:26:b6:9a:2e:f0:
                    09:8e:88:e4:25:76:99:a7:55:db:15:28:48:f0:1e:
                    df:b9:74:e4:b5:a6:09:6a:88:98:63:c9:63:fe:60:
                    66:0a:c5:ef:49:40:af:d2:3e:c1:ed:d0:53:d2:7a:
                    19:47:e5:3b:15:16:5e:bf:70:46:69:69:fb:37:44:
                    40:8d:7a:1e:e9:3e:c5:4c:24:ce:9f:9a:1e:db:82:
                    72:21:eb:57:8c:74:3b:d2:37:74:e1:29:2b:5c:5c:
                    fa:88:8f:73:c1:e1:f2:ba:60:fb:50:82:51:fa:0e:
                    74:88:e1:b8:b3:33:75:c8:90:3a:86:26:82:9c:e2:
                    4b:d2:61:59:46:8c:66:3d:50:08:a0:bc:5b:c7:07:
                    43:f3:26:79:63:82:46:e1:50:ab:2d:ba:ee:e2:f5:
                    5c:94:52:bc:19:09:2c:32:4b:af:f7:0a:d3:53:ed:
                    d7:28:69:a4:20:3b:c5:1a:b0:16:8b:4b:94:bd:1f:
                    a4:29:cb:a1:34:f6:65:67:be:b9:74:d8:72:85:87:
                    05:09:7e:86:27:6b:f9:96:ff:51:7b:af:49:ca:79:
                    9b:2a:20:c8:46:ac:f9:d9:b5:cf:7a:9b:77:5e:6f:
                    ab:44:f6:4b:b5:61:ee:c1:18:c8:af:70:fb:35:83:
                    84:f3:48:e2:30:c4:6b:26:17:4f:06:62:2d:78:f8:
                    43:2b:28:df:10:44:5d:01:5d:d2:4a:d0:4c:50:a8:
                    c3:de:9e:c6:b4:57:ba:77:9b:70:46:65:ca:b1:5b:
                    2f:19:6f:44:8e:fd:a9:77:21:7b:15:3e:76:52:8d:
                    35:f5:eb:5e:49:a5:41:d7:66:87:26:c7:97:ba:76:
                    46:bb:3e:79:4b:cf:f9:02:6b:41:b3:ac:a0:72:0e:
                    d2:64:6c:5d:80:ed:c0:fb:0c:12:c7:57:d2:f2:9a:
                    7b:02:73:33:a9:f5:a3:33:cb:42:1d:d9:a0:29:fc:
                    ee:a8:bc:3b:c9:96:2d:02:cc:14:2b:b6:33:2d:d2:
                    8d:c3:8c:5c:af:0f:bc:02:3d:fa:be:ec:ab:98:6e:
                    74:07:f6:77:99:2a:5d:b3:b5:b7:e7:58:1a:40:ab:
                    fd:04:4c:43:82:b7:4e:f4:e1:d6:97:cf:24:9b:05:
                    6a:93:4a:8e:b8:aa:13:e2:47:0a:66:ca:be:5c:f4:
                    7d:3b:87:0c:3c:50:6a:f2:9c:56:c3:d1:9f:cf:6b:
                    e9:e1:bb:40:82:1d:02:a3:b0:39:52:e2:1e:72:a9:
                    3a:73:05:e2:b5:33:8f:d0:f5:50:c0:b6:1e:31:ce:
                    92:09:74:71:ea:3e:e2:55:75:ef:0d:23:f3:3a:09:
                    8e:17:c9
                Exponent: 65537 (0x10001)
        X509v3 extensions:
            X509v3 Subject Key Identifier: 
                19:E6:B2:1F:1E:0C:14:FB:3F:73:58:35:FC:D7:45:81:80:BD:0E:B1
            X509v3 Authority Key Identifier: 
                keyid:11:CA:08:AF:23:C8:84:31:15:C8:FA:59:0A:31:1A:57:2B:5B:2D:59
                DirName:/C=DE/O=OSS Release/OU=Development/CN=trustme General Root CA
                serial:07:18:27:46:59:CB:2D:F0:31:49:A5:1C:1E:0B:55:BB:2E:A9:29:CF

            X509v3 Basic Constraints: critical
                CA:FALSE
            X509v3 Key Usage: critical
                Digital Signature, Non Repudiation, Key Encipherment
            X509v3 Extended Key Usage: 
                TLS Web Server Authentication
            Authority Information Access: 
                CA Issuers - URI:http://localhost/dummy.cer
                OCSP - URI:http://localhost/dummy-ocsp

            X509v3 CRL Distribution Points: 

                Full Name:
                  URI:http://localhost/dummy.crl

    Signature Algorithm: sha256WithRSAEncryption
         45:07:bb:a3:06:1e:6c:42:ba:c1:6f:aa:70:97:8f:0c:10:57:
         d0:ed:fb:58:8d:92:16:02:28:1b:c8:cc:4a:56:8e:63:b7:b3:
         53:6e:c9:c3:58:8d:85:b9:33:cd:70:ea:d5:3d:2b:24:2a:21:
         c4:2e:d2:78:9e:a8:a0:0c:fe:bd:7c:56:ef:0e:36:6d:8e:d7:
         7e:08:69:14:92:a7:51:6c:6b:6c:73:ec:37:d4:13:dd:e7:2f:
         7a:a8:3c:a6:54:e4:c2:0c:3d:e4:c8:5e:f9:95:96:f8:ef:41:
         82:b0:74:9e:7f:da:78:5c:4b:b7:e3:93:c3:76:93:d5:d0:3f:
         5d:52:c5:23:02:2f:8e:ac:44:ee:3f:6e:b5:35:13:a3:08:b8:
         2d:47:46:98:f0:97:cb:d9:8a:ac:01:44:20:7e:63:49:01:e7:
         b2:aa:5b:b1:77:bc:1c:c2:bf:6f:ce:04:26:b7:f8:47:3b:a5:
         44:28:7f:6a:3c:5a:07:89:7a:5a:85:58:0c:8f:bd:24:30:d6:
         66:72:ab:01:53:9c:cf:f0:a4:8f:26:a0:d8:67:35:d2:f2:ff:
         1d:f9:f1:e5:b7:a0:b5:d3:32:f9:68:87:28:47:69:91:86:f6:
         c2:6d:ad:31:43:0d:c6:c2:71:58:7a:2d:e1:14:59:6f:d5:86:
         0e:f3:76:03:e3:ce:b5:e8:b8:b7:81:08:91:b3:70:95:cb:dc:
         4e:75:7e:db:01:3a:bd:ab:68:53:64:97:75:9c:06:b3:c4:cc:
         11:12:8c:56:3e:0e:b1:d1:d6:4a:79:22:86:f5:4b:4c:5c:9d:
         6d:b7:dd:61:8b:49:5d:61:c4:40:03:62:07:76:6a:5b:ba:f6:
         f4:1c:18:aa:e1:2d:c5:07:53:67:85:f2:9d:de:9a:fb:92:77:
         e4:e4:bf:66:29:e5:ac:12:c7:fe:c3:63:17:c1:b9:20:65:37:
         16:32:70:25:5f:4f:43:7d:a0:1f:3c:ae:e9:9c:e0:3e:eb:4e:
         46:7b:80:9d:6f:ad:16:61:f9:02:21:07:cb:7f:dc:1b:2c:84:
         a8:9c:70:51:60:2d:3e:d6:ab:01:b2:fc:56:50:2b:71:f6:d9:
         ab:0e:2f:9f:10:9c:e8:12:f3:d0:05:94:67:05:96:20:b3:4e:
         ff:0b:40:f7:11:1c:1f:59:95:07:c1:1a:8f:13:67:5e:96:1e:
         49:a9:a1:38:bc:6d:e8:5b:30:3f:62:21:bd:19:04:c2:09:09:
         73:dd:f7:4a:27:fd:ff:d6:75:ed:c8:22:7d:3d:4a:6d:39:a7:
         da:d9:94:a9:25:6b:f0:3f:f3:f7:27:13:c1:2b:59:eb:94:fa:
         7d:9c:40:4d:3f:ce:e1:3a
-----BEGIN CERTIFICATE-----
MIIGyDCCBLCgAwIBAgIUWcNwkAysMFyPq+MZ1ANuTR+wJgcwDQYJKoZIhvcNAQEL
BQAwWjELMAkGA1UEBhMCREUxFDASBgNVBAoMC09TUyBSZWxlYXNlMRQwEgYDVQQL
DAtEZXZlbG9wbWVudDEfMB0GA1UEAwwWdHJ1c3RtZSBCYWNrZW5kIFN1YiBDQTAe
Fw0yMTA3MjkyMDI0MTNaFw0yNDA3MjgyMDI0MTNaMF8xCzAJBgNVBAYTAkRFMRQw
EgYDVQQKDAtPU1MgUmVsZWFzZTEUMBIGA1UECwwLRGV2ZWxvcG1lbnQxJDAiBgNV
BAMMG3RydXN0bWUgQmFja2VuZCBDZXJ0aWZpY2F0ZTCCAiIwDQYJKoZIhvcNAQEB
BQADggIPADCCAgoCggIBAKfgO7DPpag07ia2mi7wCY6I5CV2madV2xUoSPAe37l0
5LWmCWqImGPJY/5gZgrF70lAr9I+we3QU9J6GUflOxUWXr9wRmlp+zdEQI16Huk+
xUwkzp+aHtuCciHrV4x0O9I3dOEpK1xc+oiPc8Hh8rpg+1CCUfoOdIjhuLMzdciQ
OoYmgpziS9JhWUaMZj1QCKC8W8cHQ/MmeWOCRuFQqy267uL1XJRSvBkJLDJLr/cK
01Pt1yhppCA7xRqwFotLlL0fpCnLoTT2ZWe+uXTYcoWHBQl+hidr+Zb/UXuvScp5
myogyEas+dm1z3qbd15vq0T2S7Vh7sEYyK9w+zWDhPNI4jDEayYXTwZiLXj4Qyso
3xBEXQFd0krQTFCow96exrRXunebcEZlyrFbLxlvRI79qXchexU+dlKNNfXrXkml
QddmhybHl7p2Rrs+eUvP+QJrQbOsoHIO0mRsXYDtwPsMEsdX0vKaewJzM6n1ozPL
Qh3ZoCn87qi8O8mWLQLMFCu2My3SjcOMXK8PvAI9+r7sq5hudAf2d5kqXbO1t+dY
GkCr/QRMQ4K3TvTh1pfPJJsFapNKjriqE+JHCmbKvlz0fTuHDDxQavKcVsPRn89r
6eG7QIIdAqOwOVLiHnKpOnMF4rUzj9D1UMC2HjHOkgl0ceo+4lV17w0j8zoJjhfJ
AgMBAAGjggF/MIIBezAdBgNVHQ4EFgQUGeayHx4MFPs/c1g1/NdFgYC9DrEwgZgG
A1UdIwSBkDCBjYAUEcoIryPIhDEVyPpZCjEaVytbLVmhX6RdMFsxCzAJBgNVBAYT
AkRFMRQwEgYDVQQKDAtPU1MgUmVsZWFzZTEUMBIGA1UECwwLRGV2ZWxvcG1lbnQx
IDAeBgNVBAMMF3RydXN0bWUgR2VuZXJhbCBSb290IENBghQHGCdGWcst8DFJpRwe
C1W7LqkpzzAMBgNVHRMBAf8EAjAAMA4GA1UdDwEB/wQEAwIF4DATBgNVHSUEDDAK
BggrBgEFBQcDATBfBggrBgEFBQcBAQRTMFEwJgYIKwYBBQUHMAKGGmh0dHA6Ly9s
b2NhbGhvc3QvZHVtbXkuY2VyMCcGCCsGAQUFBzABhhtodHRwOi8vbG9jYWxob3N0
L2R1bW15LW9jc3AwKwYDVR0fBCQwIjAgoB6gHIYaaHR0cDovL2xvY2FsaG9zdC9k
dW1teS5jcmwwDQYJKoZIhvcNAQELBQADggIBAEUHu6MGHmxCusFvqnCXjwwQV9Dt
+1iNkhYCKBvIzEpWjmO3s1NuycNYjYW5M81w6tU9KyQqIcQu0nieqKAM/r18Vu8O
Nm2O134IaRSSp1Fsa2xz7DfUE93nL3qoPKZU5MIMPeTIXvmVlvjvQYKwdJ5/2nhc
S7fjk8N2k9XQP11SxSMCL46sRO4/brU1E6MIuC1HRpjwl8vZiqwBRCB+Y0kB57Kq
W7F3vBzCv2/OBCa3+Ec7pUQof2o8WgeJelqFWAyPvSQw1mZyqwFTnM/wpI8moNhn
NdLy/x358eW3oLXTMvlohyhHaZGG9sJtrTFDDcbCcVh6LeEUWW/Vhg7zdgPjzrXo
uLeBCJGzcJXL3E51ftsBOr2raFNkl3WcBrPEzBESjFY+DrHR1kp5Iob1S0xcnW23
3WGLSV1hxEADYgd2alu69vQcGKrhLcUHU2eF8p3emvuSd+Tkv2Yp5awSx/7DYxfB
uSBlNxYycCVfT0N9oB88rumc4D7rTkZ7gJ1vrRZh+QIhB8t/3BsshKiccFFgLT7W
qwGy/FZQK3H22asOL58QnOgS89AFlGcFliCzTv8LQPcRHB9ZlQfBGo8TZ16WHkmp
oTi8behbMD9iIb0ZBMIJCXPd90on/f/Wde3IIn09Sm05p9rZlKkla/A/8/cnE8Er
WeuU+n2cQE0/zuE6
-----END CERTIFICATE-----
Certificate:
    Data:
        Version: 3 (0x2)
        Serial Number:
            07:18:27:46:59:cb:2d:f0:31:49:a5:1c:1e:0b:55:bb:2e:a9:29:cf
        Signature Algorithm: sha256WithRSAEncryption
        Issuer: C=DE, O=OSS Release, OU=Development, CN=trustme General Root CA
        Validity
            Not Before: Jul 29 20:24:13 2021 GMT
            Not After : Jul 28 20:24:13 2027 GMT
        Subject: C=DE, O=OSS Release, OU=Development, CN=trustme Backend Sub CA
        Subject Public Key Info:
            Public Key Algorithm: rsaEncryption
                RSA Public-Key: (4096 bit)
                Modulus:
                    00:af:e1:3e:48:c7:f2:9b:20:62:84:8d:2c:1b:5c:
                    89:6e:f6:21:2c:50:ba:8a:02:8a:5c:28:bd:0c:31:
                    b6:b5:80:a4:e1:a9:ac:ea:e8:87:85:44:b0:4e:19:
                    b6:b9:4f:ae:9f:49:13:43:1a:79:6d:d5:dc:e8:e5:
                    0a:1a:e1:2d:6a:76:3c:b6:28:30:48:14:86:bb:3b:
                    a4:c8:4d:c7:3b:1c:88:32:24:c1:e1:90:a1:84:93:
                    72:d4:ea:18:c6:a0:70:7f:44:ce:0b:c0:dc:2e:f6:
                    32:51:19:d7:c6:3a:bb:36:0d:3a:f4:57:e1:88:f0:
                    f3:aa:6b:c7:1c:4c:dd:ea:91:c9:bf:80:e1:f5:8e:
                    e9:ea:b9:8b:19:52:47:21:fd:5f:5b:e8:d4:f5:18:
                    57:0c:00:2f:65:5d:8c:18:44:06:66:15:4c:eb:90:
                    60:fb:35:7e:cc:55:75:0f:c9:5f:be:ca:59:54:f7:
                    50:88:7c:cb:f2:02:21:c4:32:1a:36:d2:64:46:30:
                    ee:3b:a4:6d:96:67:db:46:bf:bd:45:6e:25:c2:b3:
                    80:a0:ad:ac:34:4f:ab:61:01:4d:ad:8f:79:f5:fb:
                    c5:dd:42:71:ed:82:95:5f:ad:d7:f2:74:b5:52:10:
                    1a:f2:0a:23:a1:46:11:9d:fe:71:16:76:20:76:16:
                    c2:ea:87:0d:04:07:09:50:2e:7c:77:96:bf:8b:9c:
                    a9:af:dc:ca:91:8d:47:3c:2e:c7:60:b6:77:d3:09:
                    d1:86:e0:c5:ec:42:a9:c2:1a:2a:ca:89:42:9d:9f:
                    bd:87:48:bb:7b:5f:c8:73:0f:47:91:1c:4b:68:c9:
                    80:79:c4:18:29:3b:bf:64:0f:55:83:01:2b:e2:02:
                    c7:91:32:3a:81:b0:e5:61:e5:40:15:1c:14:4f:e5:
                    49:53:52:73:54:50:00:e9:fb:d4:70:c2:f2:28:c8:
                    e4:7e:30:ef:6f:c8:9d:38:69:d2:3f:f0:30:b2:21:
                    5a:db:42:d9:68:04:0a:2c:83:72:a5:38:8d:2b:1d:
                    02:a7:22:0a:8e:fe:ca:01:c5:fa:ea:13:0d:fe:43:
                    5d:8c:c2:11:c5:88:0b:ce:ee:79:dc:03:fa:ec:af:
                    53:6e:73:95:35:c6:03:62:09:dc:c6:17:d5:cd:58:
                    f3:ad:bb:84:ee:09:6b:c2:24:c7:23:ff:b9:ce:3b:
                    9e:ea:7f:27:44:14:76:96:2a:67:9d:f1:60:f0:ee:
                    c4:d8:c8:0f:db:4c:51:c3:ee:9f:c6:ad:bc:c1:31:
                    13:d1:7a:c0:a7:02:0e:3f:80:db:15:82:aa:fb:28:
                    19:a3:bf:6d:a4:a5:e9:a3:7f:30:21:44:c7:27:9b:
                    66:bd:85
                Exponent: 65537 (0x10001)
        X509v3 extensions:
            X509v3 Subject Key Identifier: 
                11:CA:08:AF:23:C8:84:31:15:C8:FA:59:0A:31:1A:57:2B:5B:2D:59
            X509v3 Authority Key Identifier: 
                keyid:A6:DA:59:66:F5:A6:DE:56:F1:45:FA:C0:A5:82:C4:8B:E9:25:BC:80
                DirName:/C=DE/O=OSS Release/OU=Development/CN=trustme General Root CA
                serial:59:35:5B:6C:09:AB:D3:16:FC:D7:E9:48:19:0A:6D:31:80:D7:FF:AF

            X509v3 Basic Constraints: critical
                CA:TRUE
            X509v3 Key Usage: 
                Digital Signature, Certificate Sign, CRL Sign
            Authority Information Access: 
                CA Issuers - URI:http://localhost/dummy.cer
                OCSP - URI:http://localhost/dummy-ocsp

            X509v3 CRL Distribution Points: 

                Full Name:
                  URI:http://localhost/dummy.crl

    Signature Algorithm: sha256WithRSAEncryption
         55:24:fb:bd:72:ce:72:6b:84:d0:27:fa:50:8d:f9:dd:92:35:
         68:e6:66:bb:e7:ce:9b:6c:df:5f:06:8b:c9:77:9e:dd:b7:91:
         f1:54:48:5c:2d:2c:0b:de:87:7a:8f:3c:a3:29:d3:b8:d3:82:
         66:14:53:69:45:e7:1e:5d:1c:20:b4:b4:a8:97:4a:bc:de:fe:
         9d:45:a5:1f:24:78:d1:f5:d6:28:1a:09:1e:05:2c:be:b7:5f:
         ca:55:37:75:23:80:99:d9:8e:5b:e5:4a:99:0b:c8:1f:56:13:
         39:08:3f:16:5c:9a:a1:a4:dc:51:84:a4:65:3d:cd:db:b3:d0:
         b3:23:dd:4f:27:04:b3:4d:2b:26:f3:c5:a2:ce:13:0f:0e:41:
         25:22:7f:40:a6:bf:b0:78:0c:4c:15:55:d8:1c:4e:55:eb:6a:
         ea:b2:af:83:33:0c:9c:21:1c:fd:a8:c8:28:4d:64:1a:fa:fe:
         32:fe:9e:e9:1b:c6:06:c8:32:11:c8:1f:3d:e3:08:36:3d:f7:
         ec:17:ab:64:3b:4f:ed:61:d7:b1:dd:d1:db:5f:dd:15:38:f8:
         44:1c:25:99:33:c5:b6:c7:a9:00:7d:ce:86:bf:16:0e:d0:af:
         d1:eb:c8:ca:8f:6e:df:d6:5d:67:2a:d9:7b:a8:5c:aa:9f:35:
         fd:73:8c:ea:d8:b6:ee:9a:c8:79:38:b4:71:56:c6:c9:d3:b9:
         78:a4:a2:27:64:3c:2f:64:c0:03:81:a0:39:8a:85:b9:8a:e9:
         77:06:ec:fd:1c:2f:6f:fd:34:41:d2:4e:14:07:57:f7:bc:bd:
         7a:ab:ba:26:83:ac:bd:d0:06:da:1e:a6:08:39:0e:fc:c4:13:
         b0:2a:e1:5e:fe:ac:78:85:51:c0:bb:09:ac:86:5f:25:6d:a7:
         18:1d:76:85:5b:60:67:a4:59:34:31:49:31:b8:43:32:cd:fc:
         48:bc:24:bf:bf:45:b2:25:55:35:5b:b5:63:99:98:d3:7f:50:
         b9:16:f1:f5:a5:74:d1:1f:37:3d:b2:95:a0:29:17:23:43:60:
         cf:2c:a0:71:e9:2e:52:56:07:f1:92:ef:da:fc:d9:dd:63:5d:
         46:98:ea:bc:96:d0:f3:74:7a:8e:11:15:3e:4b:58:b4:df:96:
         82:b4:92:7a:bc:de:97:13:82:2d:e6:07:70:bc:17:8c:2d:fb:
         9b:b9:35:f1:72:0e:e9:06:94:05:3d:6a:54:26:1f:43:07:0e:
         e5:48:db:c0:c9:27:f4:cb:81:9d:6c:b0:0d:08:fb:b8:62:ad:
         ba:66:ec:a3:35:61:c3:b5:ad:46:a1:d8:5b:00:6b:7c:a1:77:
         e2:57:27:6c:b2:8e:8f:10
-----BEGIN CERTIFICATE-----
MIIGrzCCBJegAwIBAgIUBxgnRlnLLfAxSaUcHgtVuy6pKc8wDQYJKoZIhvcNAQEL
BQAwWzELMAkGA1UEBhMCREUxFDASBgNVBAoMC09TUyBSZWxlYXNlMRQwEgYDVQQL
DAtEZXZlbG9wbWVudDEgMB4GA1UEAwwXdHJ1c3RtZSBHZW5lcmFsIFJvb3QgQ0Ew
HhcNMjEwNzI5MjAyNDEzWhcNMjcwNzI4MjAyNDEzWjBaMQswCQYDVQQGEwJERTEU
MBIGA1UECgwLT1NTIFJlbGVhc2UxFDASBgNVBAsMC0RldmVsb3BtZW50MR8wHQYD
VQQDDBZ0cnVzdG1lIEJhY2tlbmQgU3ViIENBMIICIjANBgkqhkiG9w0BAQEFAAOC
Ag8AMIICCgKCAgEAr+E+SMfymyBihI0sG1yJbvYhLFC6igKKXCi9DDG2tYCk4ams
6uiHhUSwThm2uU+un0kTQxp5bdXc6OUKGuEtanY8tigwSBSGuzukyE3HOxyIMiTB
4ZChhJNy1OoYxqBwf0TOC8DcLvYyURnXxjq7Ng069FfhiPDzqmvHHEzd6pHJv4Dh
9Y7p6rmLGVJHIf1fW+jU9RhXDAAvZV2MGEQGZhVM65Bg+zV+zFV1D8lfvspZVPdQ
iHzL8gIhxDIaNtJkRjDuO6RtlmfbRr+9RW4lwrOAoK2sNE+rYQFNrY959fvF3UJx
7YKVX63X8nS1UhAa8gojoUYRnf5xFnYgdhbC6ocNBAcJUC58d5a/i5ypr9zKkY1H
PC7HYLZ30wnRhuDF7EKpwhoqyolCnZ+9h0i7e1/Icw9HkRxLaMmAecQYKTu/ZA9V
gwEr4gLHkTI6gbDlYeVAFRwUT+VJU1JzVFAA6fvUcMLyKMjkfjDvb8idOGnSP/Aw
siFa20LZaAQKLINypTiNKx0CpyIKjv7KAcX66hMN/kNdjMIRxYgLzu553AP67K9T
bnOVNcYDYgncxhfVzVjzrbuE7glrwiTHI/+5zjue6n8nRBR2lipnnfFg8O7E2MgP
20xRw+6fxq28wTET0XrApwIOP4DbFYKq+ygZo79tpKXpo38wIUTHJ5tmvYUCAwEA
AaOCAWowggFmMB0GA1UdDgQWBBQRygivI8iEMRXI+lkKMRpXK1stWTCBmAYDVR0j
BIGQMIGNgBSm2llm9abeVvFF+sClgsSL6SW8gKFfpF0wWzELMAkGA1UEBhMCREUx
FDASBgNVBAoMC09TUyBSZWxlYXNlMRQwEgYDVQQLDAtEZXZlbG9wbWVudDEgMB4G
A1UEAwwXdHJ1c3RtZSBHZW5lcmFsIFJvb3QgQ0GCFFk1W2wJq9MW/NfpSBkKbTGA
1/+vMA8GA1UdEwEB/wQFMAMBAf8wCwYDVR0PBAQDAgGGMF8GCCsGAQUFBwEBBFMw
UTAmBggrBgEFBQcwAoYaaHR0cDovL2xvY2FsaG9zdC9kdW1teS5jZXIwJwYIKwYB
BQUHMAGGG2h0dHA6Ly9sb2NhbGhvc3QvZHVtbXktb2NzcDArBgNVHR8EJDAiMCCg
HqAchhpodHRwOi8vbG9jYWxob3N0L2R1bW15LmNybDANBgkqhkiG9w0BAQsFAAOC
AgEAVST7vXLOcmuE0Cf6UI353ZI1aOZmu+fOm2zfXwaLyXee3beR8VRIXC0sC96H
eo88oynTuNOCZhRTaUXnHl0cILS0qJdKvN7+nUWlHyR40fXWKBoJHgUsvrdfylU3
dSOAmdmOW+VKmQvIH1YTOQg/FlyaoaTcUYSkZT3N27PQsyPdTycEs00rJvPFos4T
Dw5BJSJ/QKa/sHgMTBVV2BxOVetq6rKvgzMMnCEc/ajIKE1kGvr+Mv6e6RvGBsgy
EcgfPeMINj337BerZDtP7WHXsd3R21/dFTj4RBwlmTPFtsepAH3Ohr8WDtCv0evI
yo9u39ZdZyrZe6hcqp81/XOM6ti27prIeTi0cVbGydO5eKSiJ2Q8L2TAA4GgOYqF
uYrpdwbs/Rwvb/00QdJOFAdX97y9equ6JoOsvdAG2h6mCDkO/MQTsCrhXv6seIVR
wLsJrIZfJW2nGB12hVtgZ6RZNDFJMbhDMs38SLwkv79FsiVVNVu1Y5mY039QuRbx
9aV00R83PbKVoCkXI0NgzyygcekuUlYH8ZLv2vzZ3WNdRpjqvJbQ83R6jhEVPktY
tN+WgrSSerzelxOCLeYHcLwXjC37m7k18XIO6QaUBT1qVCYfQwcO5UjbwMkn9MuB
nWywDQj7uGKtumbsozVhw7WtRqHYWwBrfKF34lcnbLKOjxA=
-----END CERTIFICATE-----
-----BEGIN CERTIFICATE-----
MIIF7TCCA9WgAwIBAgIUWTVbbAmr0xb81+lIGQptMYDX/68wDQYJKoZIhvcNAQEL
BQAwWzELMAkGA1UEBhMCREUxFDASBgNVBAoMC09TUyBSZWxlYXNlMRQwEgYDVQQL
DAtEZXZlbG9wbWVudDEgMB4GA1UEAwwXdHJ1c3RtZSBHZW5lcmFsIFJvb3QgQ0Ew
HhcNMjEwNzI5MjAyNDEyWhcNMzEwNzI3MjAyNDEyWjBbMQswCQYDVQQGEwJERTEU
MBIGA1UECgwLT1NTIFJlbGVhc2UxFDASBgNVBAsMC0RldmVsb3BtZW50MSAwHgYD
VQQDDBd0cnVzdG1lIEdlbmVyYWwgUm9vdCBDQTCCAiIwDQYJKoZIhvcNAQEBBQAD
ggIPADCCAgoCggIBAMdPsCvF1f6TsLmkCcoTaCXIlfvhZMGMQhhGivEF6lMwwTFq
4utAW6GBTNPP3k2qZVeYb2Y3Ghsyd5/qMc6nah0Oq5YkpNGi2Ul4w4BZrVXVUaSo
p4wox2o+TMTHyQPSsvlgTioU4nZfzv9sz4pCjDoEky7UBAjD3t9NXUOt0GmjI/2w
YOUE++eftvkrCO6Rctct4qQYmD4rELtu5dy9325bNtBe/yV2SCW5RB7kaPo2GThI
AnxtCDS89ckGlo9OqEez/T/cxbAeL4NKsQ/LTGYmuWD0qlSTuzV+P3jSVLEVnnvL
vkZ9ZV0awaNisAbyKd13ZVDPnpu45ZyQRi04TkPKGjkaT3a3jcBWMz3hyWfq4kFG
0ioAYJjzCThXJX8JBFrdOSkIakl9tXpnejwLovCEH8M1lkKieomePseEEHnR5LR6
lk5ZcUxD17f2gDz5LgEmz2M5Cu6L5OES8A2LSarv7XF7YkjKXDBk8ZELpvuphVL2
2bv1lerUQRFijSfgFXG9G/uQoUgkgPlh6dVsZg/n8AoiFlftXl0QPnBcskgMhsAf
4LgtQMlJI18D17BzkbP2z9+oRvgUHC6ap6qCjpHHjJixWENAkell9jY/rRXDUDZM
VVRIc+NnOPmLDK8npz6OMB8LStDp6hAoo9bBZeeKDcZc2wiFkr2FDyfV4vhZAgMB
AAGjgagwgaUwHQYDVR0OBBYEFKbaWWb1pt5W8UX6wKWCxIvpJbyAMA8GA1UdEwEB
/wQFMAMBAf8wDgYDVR0PAQH/BAQDAgEGMDYGCCsGAQUFBwEBBCowKDAmBggrBgEF
BQcwAoYaaHR0cDovL2xvY2FsaG9zdC9kdW1teS5jZXIwKwYDVR0fBCQwIjAgoB6g
HIYaaHR0cDovL2xvY2FsaG9zdC9kdW1teS5jcmwwDQYJKoZIhvcNAQELBQADggIB
AI9x7gYcQ5DCtP0iHxogtrrYovP4GlFctdo/vjNi4VpNeaeq+jdaURqyeDhHvarG
l/OLOQ4OYSz2mpMlD/s/4VysZ8kyrRMlpR11wTUdQ3WJeHx367dN2bE17/wDnHB2
5iJmLCVASrf+sPgPjdYuGPKOnfcA4MNIse+PO5N+5D7LrbolzI4IlbBXkSYu8c4b
IoCWTZ66mdsd9qEEeZHISYuiJpi+CUiD/s6E3YJ1SkLINSh1qBzw/qJY0hB0lJyb
u/5/Qtcgj3sC/fBMnOpqcfn6D5wOXcZy83pEMHugs97CkJwainkdgF1wNdLKM0sZ
j//uavbR1Q5qqARgUPA8wkcU7p2QpKDOZRpqnyliHNTehsIkj2VwCVssWCNU/Dn1
vnAVWjuS+e9lZDyZs2EbwjB7Jte7xDw2BuMTfFCzuxVVaKmcdvBGseEIwsD4BiCk
igQhfZFj6U3Bl7MjMnUiVGXHdgIxIIzhKcmZTzY2zoQLEhFKlJG6p7828BOmD3sE
7D9qVl6NPwQwP/60ITbE7aGfUOOtBQs/6WZ8z/hHrDlqUkZSN9/0J6fibyFxhZL5
WViNGRnRVcBy3SiX27QmZCs6Rx1i97wmUQWGy3cPPMK3K0AcnYICDBSIwUgEEpJ9
6KnmHVkQyAydXKXJ3bI8A2kGxHpwggwidyh+N6Pp58ar
-----END CERTIFICATE-----
