Certificate:
    Data:
        Version: 3 (0x2)
        Serial Number:
            07:18:27:46:59:cb:2d:f0:31:49:a5:1c:1e:0b:55:bb:2e:a9:29:cd
        Signature Algorithm: sha256WithRSAEncryption
        Issuer: C=DE, O=OSS Release, OU=Development, CN=trustme General Root CA
        Validity
            Not Before: Jul 29 20:24:12 2021 GMT
            Not After : Jul 28 20:24:12 2027 GMT
        Subject: C=DE, O=OSS Release, OU=Development, CN=trustme Device Sub CA
        Subject Public Key Info:
            Public Key Algorithm: rsaEncryption
                RSA Public-Key: (4096 bit)
                Modulus:
                    00:9d:16:86:7b:ca:6d:4c:bc:b3:33:cd:7d:f8:1c:
                    a5:84:28:b7:93:ef:1e:95:a3:55:0e:f3:24:78:db:
                    96:17:24:ca:85:85:e2:27:92:70:67:31:96:5b:8a:
                    f0:05:0d:16:b6:10:c7:9d:7a:47:b6:73:8a:8b:05:
                    ca:86:be:f1:69:40:d3:b3:22:0a:79:1f:0c:11:e8:
                    de:cf:9a:d3:11:92:35:d0:04:6d:93:01:13:5a:c2:
                    5b:79:66:00:ea:46:a2:1e:0a:28:9e:ca:99:7a:63:
                    fe:02:57:7a:d1:45:28:84:a2:39:38:6e:27:a5:05:
                    88:91:02:f0:64:36:b5:8c:5f:8b:d9:0b:99:ef:37:
                    0b:ad:52:89:d0:c0:36:a0:76:a7:bf:4c:54:b5:5e:
                    e6:33:3f:32:26:7e:ad:9b:37:65:14:0f:5f:23:ab:
                    62:5c:55:e5:fe:39:82:01:67:0d:d8:25:06:0c:02:
                    38:20:79:38:b7:cd:f5:ca:7f:ba:0c:be:b4:d9:26:
                    df:44:47:3a:bb:4f:51:f0:e9:77:60:4d:80:20:ae:
                    8a:ad:f0:ff:d3:90:ed:3a:51:7e:cb:99:69:a4:ad:
                    eb:6e:7c:eb:18:47:9c:18:76:fa:3c:d7:2e:d9:95:
                    10:c3:bd:69:52:68:68:a1:00:75:e9:b1:a7:1d:36:
                    94:10:43:9e:21:f6:24:47:18:04:1a:0c:99:8a:5b:
                    d6:a1:94:e4:97:88:5b:fa:a7:8c:42:e6:ff:5d:f8:
                    ae:35:44:df:aa:12:25:32:43:ff:7c:cd:56:40:3d:
                    9f:a8:b1:e6:69:e5:31:73:42:1c:70:b4:16:20:60:
                    27:1f:5d:6a:79:07:30:24:83:00:91:ec:46:a9:d8:
                    4c:63:c2:f7:3d:85:04:97:b7:5d:34:9e:42:5d:46:
                    f8:53:da:bd:c0:94:b1:d3:5d:3d:63:4f:b3:bd:d5:
                    ce:0f:f4:0d:58:95:eb:4b:85:de:d0:51:99:ae:37:
                    1f:94:fe:a2:5f:18:3c:34:63:0c:9a:e9:b4:98:5f:
                    e5:ed:00:97:40:19:df:69:64:36:43:71:b3:89:fc:
                    87:cb:02:92:e2:94:4a:04:75:8a:ab:1a:93:a2:4b:
                    48:91:c4:cb:00:06:d8:73:12:84:c1:82:f5:c6:8a:
                    40:30:76:16:57:1b:53:c1:f8:8f:9a:bc:99:dd:b5:
                    88:1e:ac:b7:8d:5b:87:f6:49:4d:47:5d:a2:61:3e:
                    a3:7d:d9:79:0d:cb:12:e6:17:d8:e0:c7:d6:a3:b3:
                    3e:2f:62:6e:72:c9:5f:39:34:30:26:00:a6:a4:a9:
                    09:51:e8:45:a6:fa:3b:43:08:aa:e1:f8:a1:c6:8f:
                    2f:28:ed
                Exponent: 65537 (0x10001)
        X509v3 extensions:
            X509v3 Subject Key Identifier: 
                22:1A:E4:EC:13:D9:83:F3:FD:62:16:F7:72:8F:8B:06:A7:E2:1A:47
            X509v3 Authority Key Identifier: 
                keyid:A6:DA:59:66:F5:A6:DE:56:F1:45:FA:C0:A5:82:C4:8B:E9:25:BC:80
                DirName:/C=DE/O=OSS Release/OU=Development/CN=trustme General Root CA
                serial:59:35:5B:6C:09:AB:D3:16:FC:D7:E9:48:19:0A:6D:31:80:D7:FF:AF

            X509v3 Basic Constraints: critical
                CA:TRUE
            X509v3 Key Usage: 
                Digital Signature, Certificate Sign, CRL Sign
            Authority Information Access: 
                CA Issuers - URI:http://localhost/dummy.cer
                OCSP - URI:http://localhost/dummy-ocsp

            X509v3 CRL Distribution Points: 

                Full Name:
                  URI:http://localhost/dummy.crl

    Signature Algorithm: sha256WithRSAEncryption
         ae:cb:b0:29:0c:a5:28:25:50:39:bc:84:1d:c8:f9:99:17:3c:
         81:b9:55:51:4a:1a:75:53:49:21:56:89:41:bd:47:a7:5b:16:
         06:d4:3c:2d:6a:02:8f:fa:57:81:15:49:80:29:fc:54:e4:f8:
         61:4d:25:14:18:9e:ea:1e:2d:27:34:ee:be:23:60:29:00:c0:
         c7:4c:56:59:58:39:16:c2:be:8a:b1:b4:63:32:a8:c2:24:de:
         3b:e3:08:3b:87:b2:e4:ee:2f:3a:55:cd:0f:fc:8e:17:33:24:
         8a:41:6a:48:ce:00:2c:06:e8:07:21:d6:64:57:3b:dc:4b:e7:
         b8:11:38:49:69:aa:9a:1b:ec:f4:0d:b8:22:c1:43:62:76:e4:
         2c:9e:db:3a:82:bc:6e:40:87:67:a3:99:a5:7e:a4:8a:74:20:
         f5:aa:24:9c:56:1a:9b:02:37:3d:61:d4:77:ed:61:56:a4:c1:
         8d:b9:6b:98:4a:f4:76:f1:11:26:c4:35:ec:73:02:75:07:46:
         79:46:e8:39:d3:6d:20:9c:99:c0:1e:2d:77:6c:2c:5f:e8:f3:
         65:ef:52:6d:6b:39:ec:b4:50:25:4c:4b:bc:af:ff:d1:37:f3:
         41:8f:7e:58:bc:4b:4c:7a:e4:82:78:94:4f:89:5d:bd:2a:97:
         b7:92:ec:b1:e9:d9:ce:55:d3:b3:7c:50:d5:61:22:13:14:9d:
         07:82:36:f8:91:a0:ad:5a:f2:63:72:4a:38:2c:85:17:d7:df:
         c8:70:c5:cf:0a:4d:ea:a8:a1:12:a8:86:6f:17:e3:d4:fd:59:
         e5:f3:ed:86:f7:33:b3:1b:86:af:cd:3e:cb:c7:5e:18:b0:38:
         fb:20:b9:41:d4:42:cc:c8:80:03:b6:7f:fd:a7:16:e0:b2:4c:
         15:36:38:3e:08:87:25:94:9d:b2:d2:8c:50:cf:28:cb:18:ff:
         5b:ca:f4:79:b9:bc:fe:32:12:4f:99:e7:75:c7:f2:c6:28:ae:
         d5:6b:62:ad:33:1b:78:94:0b:d2:d3:95:63:3b:55:47:2d:04:
         9e:1d:3f:4c:73:07:b4:88:5a:50:20:fe:82:83:cc:8a:7c:5c:
         8f:99:10:e0:66:4c:2d:95:b4:df:9f:29:28:f0:ba:21:6a:4a:
         e8:c8:78:73:e8:aa:65:24:6d:0d:46:96:c2:28:8e:3d:5c:dd:
         02:de:72:6c:47:be:ac:35:8d:da:c0:aa:8c:84:1f:60:a2:a4:
         d7:22:93:74:1a:17:8b:0e:e0:b5:96:0a:2c:21:46:62:61:f2:
         2e:53:68:ea:e7:08:dd:70:a7:44:a9:48:d7:56:ff:0d:49:bb:
         6d:b3:0b:ef:2e:05:b0:ca
-----BEGIN CERTIFICATE-----
MIIGrjCCBJagAwIBAgIUBxgnRlnLLfAxSaUcHgtVuy6pKc0wDQYJKoZIhvcNAQEL
BQAwWzELMAkGA1UEBhMCREUxFDASBgNVBAoMC09TUyBSZWxlYXNlMRQwEgYDVQQL
DAtEZXZlbG9wbWVudDEgMB4GA1UEAwwXdHJ1c3RtZSBHZW5lcmFsIFJvb3QgQ0Ew
HhcNMjEwNzI5MjAyNDEyWhcNMjcwNzI4MjAyNDEyWjBZMQswCQYDVQQGEwJERTEU
MBIGA1UECgwLT1NTIFJlbGVhc2UxFDASBgNVBAsMC0RldmVsb3BtZW50MR4wHAYD
VQQDDBV0cnVzdG1lIERldmljZSBTdWIgQ0EwggIiMA0GCSqGSIb3DQEBAQUAA4IC
DwAwggIKAoICAQCdFoZ7ym1MvLMzzX34HKWEKLeT7x6Vo1UO8yR425YXJMqFheIn
knBnMZZbivAFDRa2EMedeke2c4qLBcqGvvFpQNOzIgp5HwwR6N7PmtMRkjXQBG2T
ARNawlt5ZgDqRqIeCiieypl6Y/4CV3rRRSiEojk4bielBYiRAvBkNrWMX4vZC5nv
NwutUonQwDagdqe/TFS1XuYzPzImfq2bN2UUD18jq2JcVeX+OYIBZw3YJQYMAjgg
eTi3zfXKf7oMvrTZJt9ERzq7T1Hw6XdgTYAgroqt8P/TkO06UX7LmWmkretufOsY
R5wYdvo81y7ZlRDDvWlSaGihAHXpsacdNpQQQ54h9iRHGAQaDJmKW9ahlOSXiFv6
p4xC5v9d+K41RN+qEiUyQ/98zVZAPZ+oseZp5TFzQhxwtBYgYCcfXWp5BzAkgwCR
7Eap2Exjwvc9hQSXt100nkJdRvhT2r3AlLHTXT1jT7O91c4P9A1YletLhd7QUZmu
Nx+U/qJfGDw0Ywya6bSYX+XtAJdAGd9pZDZDcbOJ/IfLApLilEoEdYqrGpOiS0iR
xMsABthzEoTBgvXGikAwdhZXG1PB+I+avJndtYgerLeNW4f2SU1HXaJhPqN92XkN
yxLmF9jgx9ajsz4vYm5yyV85NDAmAKakqQlR6EWm+jtDCKrh+KHGjy8o7QIDAQAB
o4IBajCCAWYwHQYDVR0OBBYEFCIa5OwT2YPz/WIW93KPiwan4hpHMIGYBgNVHSME
gZAwgY2AFKbaWWb1pt5W8UX6wKWCxIvpJbyAoV+kXTBbMQswCQYDVQQGEwJERTEU
MBIGA1UECgwLT1NTIFJlbGVhc2UxFDASBgNVBAsMC0RldmVsb3BtZW50MSAwHgYD
VQQDDBd0cnVzdG1lIEdlbmVyYWwgUm9vdCBDQYIUWTVbbAmr0xb81+lIGQptMYDX
/68wDwYDVR0TAQH/BAUwAwEB/zALBgNVHQ8EBAMCAYYwXwYIKwYBBQUHAQEEUzBR
MCYGCCsGAQUFBzAChhpodHRwOi8vbG9jYWxob3N0L2R1bW15LmNlcjAnBggrBgEF
BQcwAYYbaHR0cDovL2xvY2FsaG9zdC9kdW1teS1vY3NwMCsGA1UdHwQkMCIwIKAe
oByGGmh0dHA6Ly9sb2NhbGhvc3QvZHVtbXkuY3JsMA0GCSqGSIb3DQEBCwUAA4IC
AQCuy7ApDKUoJVA5vIQdyPmZFzyBuVVRShp1U0khVolBvUenWxYG1DwtagKP+leB
FUmAKfxU5PhhTSUUGJ7qHi0nNO6+I2ApAMDHTFZZWDkWwr6KsbRjMqjCJN474wg7
h7Lk7i86Vc0P/I4XMySKQWpIzgAsBugHIdZkVzvcS+e4EThJaaqaG+z0DbgiwUNi
duQsnts6grxuQIdno5mlfqSKdCD1qiScVhqbAjc9YdR37WFWpMGNuWuYSvR28REm
xDXscwJ1B0Z5Rug5020gnJnAHi13bCxf6PNl71JtaznstFAlTEu8r//RN/NBj35Y
vEtMeuSCeJRPiV29Kpe3kuyx6dnOVdOzfFDVYSITFJ0Hgjb4kaCtWvJjcko4LIUX
19/IcMXPCk3qqKESqIZvF+PU/Vnl8+2G9zOzG4avzT7Lx14YsDj7ILlB1ELMyIAD
tn/9pxbgskwVNjg+CIcllJ2y0oxQzyjLGP9byvR5ubz+MhJPmed1x/LGKK7Va2Kt
Mxt4lAvS05VjO1VHLQSeHT9Mcwe0iFpQIP6Cg8yKfFyPmRDgZkwtlbTfnyko8Loh
akroyHhz6KplJG0NRpbCKI49XN0C3nJsR76sNY3awKqMhB9goqTXIpN0GheLDuC1
lgosIUZiYfIuU2jq5wjdcKdEqUjXVv8NSbttswvvLgWwyg==
-----END CERTIFICATE-----
-----BEGIN CERTIFICATE-----
MIIF7TCCA9WgAwIBAgIUWTVbbAmr0xb81+lIGQptMYDX/68wDQYJKoZIhvcNAQEL
BQAwWzELMAkGA1UEBhMCREUxFDASBgNVBAoMC09TUyBSZWxlYXNlMRQwEgYDVQQL
DAtEZXZlbG9wbWVudDEgMB4GA1UEAwwXdHJ1c3RtZSBHZW5lcmFsIFJvb3QgQ0Ew
HhcNMjEwNzI5MjAyNDEyWhcNMzEwNzI3MjAyNDEyWjBbMQswCQYDVQQGEwJERTEU
MBIGA1UECgwLT1NTIFJlbGVhc2UxFDASBgNVBAsMC0RldmVsb3BtZW50MSAwHgYD
VQQDDBd0cnVzdG1lIEdlbmVyYWwgUm9vdCBDQTCCAiIwDQYJKoZIhvcNAQEBBQAD
ggIPADCCAgoCggIBAMdPsCvF1f6TsLmkCcoTaCXIlfvhZMGMQhhGivEF6lMwwTFq
4utAW6GBTNPP3k2qZVeYb2Y3Ghsyd5/qMc6nah0Oq5YkpNGi2Ul4w4BZrVXVUaSo
p4wox2o+TMTHyQPSsvlgTioU4nZfzv9sz4pCjDoEky7UBAjD3t9NXUOt0GmjI/2w
YOUE++eftvkrCO6Rctct4qQYmD4rELtu5dy9325bNtBe/yV2SCW5RB7kaPo2GThI
AnxtCDS89ckGlo9OqEez/T/cxbAeL4NKsQ/LTGYmuWD0qlSTuzV+P3jSVLEVnnvL
vkZ9ZV0awaNisAbyKd13ZVDPnpu45ZyQRi04TkPKGjkaT3a3jcBWMz3hyWfq4kFG
0ioAYJjzCThXJX8JBFrdOSkIakl9tXpnejwLovCEH8M1lkKieomePseEEHnR5LR6
lk5ZcUxD17f2gDz5LgEmz2M5Cu6L5OES8A2LSarv7XF7YkjKXDBk8ZELpvuphVL2
2bv1lerUQRFijSfgFXG9G/uQoUgkgPlh6dVsZg/n8AoiFlftXl0QPnBcskgMhsAf
4LgtQMlJI18D17BzkbP2z9+oRvgUHC6ap6qCjpHHjJixWENAkell9jY/rRXDUDZM
VVRIc+NnOPmLDK8npz6OMB8LStDp6hAoo9bBZeeKDcZc2wiFkr2FDyfV4vhZAgMB
AAGjgagwgaUwHQYDVR0OBBYEFKbaWWb1pt5W8UX6wKWCxIvpJbyAMA8GA1UdEwEB
/wQFMAMBAf8wDgYDVR0PAQH/BAQDAgEGMDYGCCsGAQUFBwEBBCowKDAmBggrBgEF
BQcwAoYaaHR0cDovL2xvY2FsaG9zdC9kdW1teS5jZXIwKwYDVR0fBCQwIjAgoB6g
HIYaaHR0cDovL2xvY2FsaG9zdC9kdW1teS5jcmwwDQYJKoZIhvcNAQELBQADggIB
AI9x7gYcQ5DCtP0iHxogtrrYovP4GlFctdo/vjNi4VpNeaeq+jdaURqyeDhHvarG
l/OLOQ4OYSz2mpMlD/s/4VysZ8kyrRMlpR11wTUdQ3WJeHx367dN2bE17/wDnHB2
5iJmLCVASrf+sPgPjdYuGPKOnfcA4MNIse+PO5N+5D7LrbolzI4IlbBXkSYu8c4b
IoCWTZ66mdsd9qEEeZHISYuiJpi+CUiD/s6E3YJ1SkLINSh1qBzw/qJY0hB0lJyb
u/5/Qtcgj3sC/fBMnOpqcfn6D5wOXcZy83pEMHugs97CkJwainkdgF1wNdLKM0sZ
j//uavbR1Q5qqARgUPA8wkcU7p2QpKDOZRpqnyliHNTehsIkj2VwCVssWCNU/Dn1
vnAVWjuS+e9lZDyZs2EbwjB7Jte7xDw2BuMTfFCzuxVVaKmcdvBGseEIwsD4BiCk
igQhfZFj6U3Bl7MjMnUiVGXHdgIxIIzhKcmZTzY2zoQLEhFKlJG6p7828BOmD3sE
7D9qVl6NPwQwP/60ITbE7aGfUOOtBQs/6WZ8z/hHrDlqUkZSN9/0J6fibyFxhZL5
WViNGRnRVcBy3SiX27QmZCs6Rx1i97wmUQWGy3cPPMK3K0AcnYICDBSIwUgEEpJ9
6KnmHVkQyAydXKXJ3bI8A2kGxHpwggwidyh+N6Pp58ar
-----END CERTIFICATE-----
