Certificate:
    Data:
        Version: 3 (0x2)
        Serial Number:
            59:c3:70:90:0c:ac:30:5c:8f:ab:e3:19:d4:03:6e:4d:1f:b0:26:08
        Signature Algorithm: sha256WithRSAEncryption
        Issuer: C=DE, O=OSS Release, OU=Development, CN=trustme Backend Sub CA
        Validity
            Not Before: Jul 29 20:24:14 2021 GMT
            Not After : Jul 28 20:24:14 2024 GMT
        Subject: C=DE, O=OSS Release, OU=Development, CN=trustme OCSP Server Certificate
        Subject Public Key Info:
            Public Key Algorithm: rsaEncryption
                RSA Public-Key: (4096 bit)
                Modulus:
                    00:c9:bd:8c:2b:67:b3:d9:dd:d1:d9:06:a2:70:d2:
                    15:33:6d:80:e1:7e:9e:55:40:9d:6c:4a:c4:70:36:
                    7a:cd:c5:41:c9:f9:10:67:79:8d:b9:1d:d8:62:ff:
                    22:48:d6:e0:ab:48:0f:cb:fc:35:02:9a:ff:04:7a:
                    2d:4d:4e:77:79:77:25:9b:61:78:d9:1c:2d:0a:9d:
                    02:25:63:1f:96:bd:0d:2f:73:0b:b8:aa:07:92:55:
                    a4:c4:8e:c6:a3:53:14:06:81:ee:c3:4e:0b:1d:e4:
                    1e:b8:48:d8:3e:bd:35:1e:d2:e4:39:d4:52:be:9f:
                    8d:1e:81:86:c0:42:61:84:7d:e4:b9:20:c9:bd:ac:
                    26:8d:bd:d0:18:c1:db:2d:6c:35:eb:70:e8:04:0d:
                    0f:8a:81:1c:b3:87:84:a6:21:85:f0:73:b2:f3:f4:
                    13:b8:97:d7:e7:80:af:a0:50:6b:8c:40:1d:d4:94:
                    0c:ac:de:ac:10:b6:e2:20:f8:f1:7b:c7:3c:ea:46:
                    23:16:dd:fa:25:25:b3:27:d9:09:88:0f:a2:cd:c3:
                    9b:85:48:ff:09:2b:85:60:92:7c:ff:e5:1a:35:8f:
                    67:5e:47:05:01:95:75:48:a8:02:bf:cb:72:e2:56:
                    6f:7a:a3:06:1f:51:8c:9d:24:bf:b4:84:06:d7:32:
                    78:fe:ce:2d:49:ba:56:75:af:71:c2:51:86:67:35:
                    bf:1c:f7:e7:6b:11:a4:e9:53:ee:94:d6:c8:b5:a1:
                    54:4d:e0:9a:a8:5e:74:26:67:aa:ee:47:00:43:3a:
                    4a:4c:5f:78:eb:e1:52:a5:09:e8:fc:c7:db:24:93:
                    93:b0:b3:64:93:8b:7b:33:b1:5e:40:5f:26:cd:ae:
                    77:ca:36:62:84:e1:62:e3:e8:f1:a6:7f:da:76:aa:
                    11:22:ed:88:b9:45:81:5f:7e:f2:5f:94:77:bc:67:
                    2f:dc:8b:d4:2e:66:a7:49:4e:25:48:3d:ba:94:54:
                    0e:06:79:93:bb:25:cf:cf:95:4b:23:18:44:e4:de:
                    d6:a9:f2:49:30:09:3b:dc:2a:a3:ff:bc:c5:91:76:
                    78:bf:ea:e8:b5:06:e7:2e:23:de:12:49:34:95:35:
                    2e:d7:38:06:de:a0:73:4f:16:b9:dd:43:52:58:5d:
                    9e:21:b4:f1:6d:e1:f0:18:d9:fa:21:3b:24:af:a5:
                    60:a0:ed:23:74:32:49:4c:d4:41:fe:76:21:7a:c4:
                    b2:e5:3b:be:99:a3:1c:12:48:ce:08:45:4b:ed:bd:
                    95:15:56:55:60:48:c3:d9:10:c7:16:83:a6:dc:3f:
                    4c:33:b7:de:ac:ef:8a:d9:ac:2c:fe:4d:b5:c8:b4:
                    cf:89:cd
                Exponent: 65537 (0x10001)
        X509v3 extensions:
            X509v3 Subject Key Identifier: 
                27:06:4C:1C:CC:33:FD:2C:DA:CE:07:93:AE:DD:7E:3F:23:17:92:AB
            X509v3 Authority Key Identifier: 
                keyid:11:CA:08:AF:23:C8:84:31:15:C8:FA:59:0A:31:1A:57:2B:5B:2D:59
                DirName:/C=DE/O=OSS Release/OU=Development/CN=trustme General Root CA
                serial:07:18:27:46:59:CB:2D:F0:31:49:A5:1C:1E:0B:55:BB:2E:A9:29:CF

            X509v3 Basic Constraints: critical
                CA:FALSE
            X509v3 Key Usage: critical
                Digital Signature, Non Repudiation, Key Encipherment
            X509v3 Extended Key Usage: 
                TLS Web Server Authentication
            Authority Information Access: 
                CA Issuers - URI:http://localhost/dummy.cer
                OCSP - URI:http://localhost/dummy-ocsp

            X509v3 CRL Distribution Points: 

                Full Name:
                  URI:http://localhost/dummy.crl

    Signature Algorithm: sha256WithRSAEncryption
         01:5c:77:1f:e6:6f:e5:4f:96:e7:67:c2:f5:37:45:02:ad:98:
         17:d7:10:74:f8:f9:65:25:6a:0f:ca:99:88:b8:20:2a:32:08:
         26:a1:fc:b4:7f:5d:b1:89:98:71:03:aa:74:f8:e5:2e:90:5d:
         88:91:cb:05:34:61:6e:53:53:ae:c5:45:96:99:27:6f:2d:3c:
         a4:23:bd:06:e2:8c:36:95:00:9e:f2:57:40:aa:cd:68:b2:33:
         22:bc:50:66:d5:aa:dd:3e:b1:ea:86:11:63:f4:71:b9:82:28:
         7d:f2:9f:22:5f:23:a1:c9:a9:f9:c5:81:8c:00:82:3d:79:ce:
         35:e7:00:c1:71:0f:a5:b0:c2:4c:6d:f8:13:8b:34:53:db:56:
         59:dd:e0:44:0a:2a:c4:47:a6:e8:16:f6:f2:f1:71:85:3a:f9:
         c3:dc:48:52:08:7a:0f:08:c8:be:a4:cf:71:be:cc:ca:13:81:
         5f:e8:dd:8f:d3:8a:2b:97:80:18:8f:93:de:29:8a:ac:51:ac:
         6a:18:68:f0:7a:66:05:24:c5:d1:52:20:39:1b:08:c1:91:91:
         09:53:ad:08:b8:7f:14:e7:33:5b:e9:66:6f:b2:7d:57:2f:0e:
         15:56:8b:86:1d:4f:d9:c4:75:df:fb:4e:78:83:86:2f:95:fe:
         03:9d:34:12:fc:89:d2:b5:91:ec:06:5d:1c:ed:36:c2:e1:33:
         d5:13:8e:0b:1c:b2:3b:5c:7f:11:37:0b:47:69:27:2f:ae:1f:
         23:db:38:0b:ff:62:e0:18:34:64:59:64:51:45:7e:bb:92:77:
         4e:78:3d:fa:93:e9:84:7e:7a:f9:d7:19:57:44:da:81:a8:6a:
         fb:00:c7:e2:46:55:62:7d:dc:b1:84:dc:22:a5:47:a7:14:f8:
         16:a6:e9:20:35:84:20:d9:19:b1:90:1f:90:6e:a2:19:bc:45:
         4b:b1:f9:e6:3e:0c:1a:5b:93:d4:b1:1e:2f:27:7c:ec:47:f3:
         56:d6:7a:eb:21:a3:43:a0:b3:1a:be:f0:61:61:f3:94:74:e6:
         cb:2f:13:84:3f:5b:a5:21:63:1f:3e:14:38:9d:99:2b:3f:a5:
         43:a8:2d:91:27:28:b5:f6:46:c3:02:60:80:91:6d:a0:f6:f4:
         ee:04:b4:7f:a3:c0:5c:df:71:36:c3:0d:00:67:d3:ef:12:65:
         23:10:24:94:88:5f:3d:e2:43:a5:ec:12:d4:e3:28:f2:d7:b9:
         e5:f5:42:83:ac:d7:ee:0a:c3:51:d6:2e:de:81:9b:d8:c8:e1:
         a6:fd:5d:e0:cd:b7:40:08:7c:79:7a:91:19:dc:b4:10:e7:0f:
         78:c4:19:3a:bc:18:17:e7
-----BEGIN CERTIFICATE-----
MIIGzDCCBLSgAwIBAgIUWcNwkAysMFyPq+MZ1ANuTR+wJggwDQYJKoZIhvcNAQEL
BQAwWjELMAkGA1UEBhMCREUxFDASBgNVBAoMC09TUyBSZWxlYXNlMRQwEgYDVQQL
DAtEZXZlbG9wbWVudDEfMB0GA1UEAwwWdHJ1c3RtZSBCYWNrZW5kIFN1YiBDQTAe
Fw0yMTA3MjkyMDI0MTRaFw0yNDA3MjgyMDI0MTRaMGMxCzAJBgNVBAYTAkRFMRQw
EgYDVQQKDAtPU1MgUmVsZWFzZTEUMBIGA1UECwwLRGV2ZWxvcG1lbnQxKDAmBgNV
BAMMH3RydXN0bWUgT0NTUCBTZXJ2ZXIgQ2VydGlmaWNhdGUwggIiMA0GCSqGSIb3
DQEBAQUAA4ICDwAwggIKAoICAQDJvYwrZ7PZ3dHZBqJw0hUzbYDhfp5VQJ1sSsRw
NnrNxUHJ+RBneY25Hdhi/yJI1uCrSA/L/DUCmv8Eei1NTnd5dyWbYXjZHC0KnQIl
Yx+WvQ0vcwu4qgeSVaTEjsajUxQGge7DTgsd5B64SNg+vTUe0uQ51FK+n40egYbA
QmGEfeS5IMm9rCaNvdAYwdstbDXrcOgEDQ+KgRyzh4SmIYXwc7Lz9BO4l9fngK+g
UGuMQB3UlAys3qwQtuIg+PF7xzzqRiMW3folJbMn2QmID6LNw5uFSP8JK4Vgknz/
5Ro1j2deRwUBlXVIqAK/y3LiVm96owYfUYydJL+0hAbXMnj+zi1JulZ1r3HCUYZn
Nb8c9+drEaTpU+6U1si1oVRN4JqoXnQmZ6ruRwBDOkpMX3jr4VKlCej8x9skk5Ow
s2STi3szsV5AXybNrnfKNmKE4WLj6PGmf9p2qhEi7Yi5RYFffvJflHe8Zy/ci9Qu
ZqdJTiVIPbqUVA4GeZO7Jc/PlUsjGETk3tap8kkwCTvcKqP/vMWRdni/6ui1Bucu
I94SSTSVNS7XOAbeoHNPFrndQ1JYXZ4htPFt4fAY2fohOySvpWCg7SN0MklM1EH+
diF6xLLlO76ZoxwSSM4IRUvtvZUVVlVgSMPZEMcWg6bcP0wzt96s74rZrCz+TbXI
tM+JzQIDAQABo4IBfzCCAXswHQYDVR0OBBYEFCcGTBzMM/0s2s4Hk67dfj8jF5Kr
MIGYBgNVHSMEgZAwgY2AFBHKCK8jyIQxFcj6WQoxGlcrWy1ZoV+kXTBbMQswCQYD
VQQGEwJERTEUMBIGA1UECgwLT1NTIFJlbGVhc2UxFDASBgNVBAsMC0RldmVsb3Bt
ZW50MSAwHgYDVQQDDBd0cnVzdG1lIEdlbmVyYWwgUm9vdCBDQYIUBxgnRlnLLfAx
SaUcHgtVuy6pKc8wDAYDVR0TAQH/BAIwADAOBgNVHQ8BAf8EBAMCBeAwEwYDVR0l
BAwwCgYIKwYBBQUHAwEwXwYIKwYBBQUHAQEEUzBRMCYGCCsGAQUFBzAChhpodHRw
Oi8vbG9jYWxob3N0L2R1bW15LmNlcjAnBggrBgEFBQcwAYYbaHR0cDovL2xvY2Fs
aG9zdC9kdW1teS1vY3NwMCsGA1UdHwQkMCIwIKAeoByGGmh0dHA6Ly9sb2NhbGhv
c3QvZHVtbXkuY3JsMA0GCSqGSIb3DQEBCwUAA4ICAQABXHcf5m/lT5bnZ8L1N0UC
rZgX1xB0+PllJWoPypmIuCAqMggmofy0f12xiZhxA6p0+OUukF2IkcsFNGFuU1Ou
xUWWmSdvLTykI70G4ow2lQCe8ldAqs1osjMivFBm1ardPrHqhhFj9HG5gih98p8i
XyOhyan5xYGMAII9ec415wDBcQ+lsMJMbfgTizRT21ZZ3eBECirER6boFvby8XGF
OvnD3EhSCHoPCMi+pM9xvszKE4Ff6N2P04orl4AYj5PeKYqsUaxqGGjwemYFJMXR
UiA5GwjBkZEJU60IuH8U5zNb6WZvsn1XLw4VVouGHU/ZxHXf+054g4Yvlf4DnTQS
/InStZHsBl0c7TbC4TPVE44LHLI7XH8RNwtHaScvrh8j2zgL/2LgGDRkWWRRRX67
kndOeD36k+mEfnr51xlXRNqBqGr7AMfiRlVifdyxhNwipUenFPgWpukgNYQg2Rmx
kB+QbqIZvEVLsfnmPgwaW5PUsR4vJ3zsR/NW1nrrIaNDoLMavvBhYfOUdObLLxOE
P1ulIWMfPhQ4nZkrP6VDqC2RJyi19kbDAmCAkW2g9vTuBLR/o8Bc33E2ww0AZ9Pv
EmUjECSUiF894kOl7BLU4yjy17nl9UKDrNfuCsNR1i7egZvYyOGm/V3gzbdACHx5
epEZ3LQQ5w94xBk6vBgX5w==
-----END CERTIFICATE-----
Certificate:
    Data:
        Version: 3 (0x2)
        Serial Number:
            07:18:27:46:59:cb:2d:f0:31:49:a5:1c:1e:0b:55:bb:2e:a9:29:cf
        Signature Algorithm: sha256WithRSAEncryption
        Issuer: C=DE, O=OSS Release, OU=Development, CN=trustme General Root CA
        Validity
            Not Before: Jul 29 20:24:13 2021 GMT
            Not After : Jul 28 20:24:13 2027 GMT
        Subject: C=DE, O=OSS Release, OU=Development, CN=trustme Backend Sub CA
        Subject Public Key Info:
            Public Key Algorithm: rsaEncryption
                RSA Public-Key: (4096 bit)
                Modulus:
                    00:af:e1:3e:48:c7:f2:9b:20:62:84:8d:2c:1b:5c:
                    89:6e:f6:21:2c:50:ba:8a:02:8a:5c:28:bd:0c:31:
                    b6:b5:80:a4:e1:a9:ac:ea:e8:87:85:44:b0:4e:19:
                    b6:b9:4f:ae:9f:49:13:43:1a:79:6d:d5:dc:e8:e5:
                    0a:1a:e1:2d:6a:76:3c:b6:28:30:48:14:86:bb:3b:
                    a4:c8:4d:c7:3b:1c:88:32:24:c1:e1:90:a1:84:93:
                    72:d4:ea:18:c6:a0:70:7f:44:ce:0b:c0:dc:2e:f6:
                    32:51:19:d7:c6:3a:bb:36:0d:3a:f4:57:e1:88:f0:
                    f3:aa:6b:c7:1c:4c:dd:ea:91:c9:bf:80:e1:f5:8e:
                    e9:ea:b9:8b:19:52:47:21:fd:5f:5b:e8:d4:f5:18:
                    57:0c:00:2f:65:5d:8c:18:44:06:66:15:4c:eb:90:
                    60:fb:35:7e:cc:55:75:0f:c9:5f:be:ca:59:54:f7:
                    50:88:7c:cb:f2:02:21:c4:32:1a:36:d2:64:46:30:
                    ee:3b:a4:6d:96:67:db:46:bf:bd:45:6e:25:c2:b3:
                    80:a0:ad:ac:34:4f:ab:61:01:4d:ad:8f:79:f5:fb:
                    c5:dd:42:71:ed:82:95:5f:ad:d7:f2:74:b5:52:10:
                    1a:f2:0a:23:a1:46:11:9d:fe:71:16:76:20:76:16:
                    c2:ea:87:0d:04:07:09:50:2e:7c:77:96:bf:8b:9c:
                    a9:af:dc:ca:91:8d:47:3c:2e:c7:60:b6:77:d3:09:
                    d1:86:e0:c5:ec:42:a9:c2:1a:2a:ca:89:42:9d:9f:
                    bd:87:48:bb:7b:5f:c8:73:0f:47:91:1c:4b:68:c9:
                    80:79:c4:18:29:3b:bf:64:0f:55:83:01:2b:e2:02:
                    c7:91:32:3a:81:b0:e5:61:e5:40:15:1c:14:4f:e5:
                    49:53:52:73:54:50:00:e9:fb:d4:70:c2:f2:28:c8:
                    e4:7e:30:ef:6f:c8:9d:38:69:d2:3f:f0:30:b2:21:
                    5a:db:42:d9:68:04:0a:2c:83:72:a5:38:8d:2b:1d:
                    02:a7:22:0a:8e:fe:ca:01:c5:fa:ea:13:0d:fe:43:
                    5d:8c:c2:11:c5:88:0b:ce:ee:79:dc:03:fa:ec:af:
                    53:6e:73:95:35:c6:03:62:09:dc:c6:17:d5:cd:58:
                    f3:ad:bb:84:ee:09:6b:c2:24:c7:23:ff:b9:ce:3b:
                    9e:ea:7f:27:44:14:76:96:2a:67:9d:f1:60:f0:ee:
                    c4:d8:c8:0f:db:4c:51:c3:ee:9f:c6:ad:bc:c1:31:
                    13:d1:7a:c0:a7:02:0e:3f:80:db:15:82:aa:fb:28:
                    19:a3:bf:6d:a4:a5:e9:a3:7f:30:21:44:c7:27:9b:
                    66:bd:85
                Exponent: 65537 (0x10001)
        X509v3 extensions:
            X509v3 Subject Key Identifier: 
                11:CA:08:AF:23:C8:84:31:15:C8:FA:59:0A:31:1A:57:2B:5B:2D:59
            X509v3 Authority Key Identifier: 
                keyid:A6:DA:59:66:F5:A6:DE:56:F1:45:FA:C0:A5:82:C4:8B:E9:25:BC:80
                DirName:/C=DE/O=OSS Release/OU=Development/CN=trustme General Root CA
                serial:59:35:5B:6C:09:AB:D3:16:FC:D7:E9:48:19:0A:6D:31:80:D7:FF:AF

            X509v3 Basic Constraints: critical
                CA:TRUE
            X509v3 Key Usage: 
                Digital Signature, Certificate Sign, CRL Sign
            Authority Information Access: 
                CA Issuers - URI:http://localhost/dummy.cer
                OCSP - URI:http://localhost/dummy-ocsp

            X509v3 CRL Distribution Points: 

                Full Name:
                  URI:http://localhost/dummy.crl

    Signature Algorithm: sha256WithRSAEncryption
         55:24:fb:bd:72:ce:72:6b:84:d0:27:fa:50:8d:f9:dd:92:35:
         68:e6:66:bb:e7:ce:9b:6c:df:5f:06:8b:c9:77:9e:dd:b7:91:
         f1:54:48:5c:2d:2c:0b:de:87:7a:8f:3c:a3:29:d3:b8:d3:82:
         66:14:53:69:45:e7:1e:5d:1c:20:b4:b4:a8:97:4a:bc:de:fe:
         9d:45:a5:1f:24:78:d1:f5:d6:28:1a:09:1e:05:2c:be:b7:5f:
         ca:55:37:75:23:80:99:d9:8e:5b:e5:4a:99:0b:c8:1f:56:13:
         39:08:3f:16:5c:9a:a1:a4:dc:51:84:a4:65:3d:cd:db:b3:d0:
         b3:23:dd:4f:27:04:b3:4d:2b:26:f3:c5:a2:ce:13:0f:0e:41:
         25:22:7f:40:a6:bf:b0:78:0c:4c:15:55:d8:1c:4e:55:eb:6a:
         ea:b2:af:83:33:0c:9c:21:1c:fd:a8:c8:28:4d:64:1a:fa:fe:
         32:fe:9e:e9:1b:c6:06:c8:32:11:c8:1f:3d:e3:08:36:3d:f7:
         ec:17:ab:64:3b:4f:ed:61:d7:b1:dd:d1:db:5f:dd:15:38:f8:
         44:1c:25:99:33:c5:b6:c7:a9:00:7d:ce:86:bf:16:0e:d0:af:
         d1:eb:c8:ca:8f:6e:df:d6:5d:67:2a:d9:7b:a8:5c:aa:9f:35:
         fd:73:8c:ea:d8:b6:ee:9a:c8:79:38:b4:71:56:c6:c9:d3:b9:
         78:a4:a2:27:64:3c:2f:64:c0:03:81:a0:39:8a:85:b9:8a:e9:
         77:06:ec:fd:1c:2f:6f:fd:34:41:d2:4e:14:07:57:f7:bc:bd:
         7a:ab:ba:26:83:ac:bd:d0:06:da:1e:a6:08:39:0e:fc:c4:13:
         b0:2a:e1:5e:fe:ac:78:85:51:c0:bb:09:ac:86:5f:25:6d:a7:
         18:1d:76:85:5b:60:67:a4:59:34:31:49:31:b8:43:32:cd:fc:
         48:bc:24:bf:bf:45:b2:25:55:35:5b:b5:63:99:98:d3:7f:50:
         b9:16:f1:f5:a5:74:d1:1f:37:3d:b2:95:a0:29:17:23:43:60:
         cf:2c:a0:71:e9:2e:52:56:07:f1:92:ef:da:fc:d9:dd:63:5d:
         46:98:ea:bc:96:d0:f3:74:7a:8e:11:15:3e:4b:58:b4:df:96:
         82:b4:92:7a:bc:de:97:13:82:2d:e6:07:70:bc:17:8c:2d:fb:
         9b:b9:35:f1:72:0e:e9:06:94:05:3d:6a:54:26:1f:43:07:0e:
         e5:48:db:c0:c9:27:f4:cb:81:9d:6c:b0:0d:08:fb:b8:62:ad:
         ba:66:ec:a3:35:61:c3:b5:ad:46:a1:d8:5b:00:6b:7c:a1:77:
         e2:57:27:6c:b2:8e:8f:10
-----BEGIN CERTIFICATE-----
MIIGrzCCBJegAwIBAgIUBxgnRlnLLfAxSaUcHgtVuy6pKc8wDQYJKoZIhvcNAQEL
BQAwWzELMAkGA1UEBhMCREUxFDASBgNVBAoMC09TUyBSZWxlYXNlMRQwEgYDVQQL
DAtEZXZlbG9wbWVudDEgMB4GA1UEAwwXdHJ1c3RtZSBHZW5lcmFsIFJvb3QgQ0Ew
HhcNMjEwNzI5MjAyNDEzWhcNMjcwNzI4MjAyNDEzWjBaMQswCQYDVQQGEwJERTEU
MBIGA1UECgwLT1NTIFJlbGVhc2UxFDASBgNVBAsMC0RldmVsb3BtZW50MR8wHQYD
VQQDDBZ0cnVzdG1lIEJhY2tlbmQgU3ViIENBMIICIjANBgkqhkiG9w0BAQEFAAOC
Ag8AMIICCgKCAgEAr+E+SMfymyBihI0sG1yJbvYhLFC6igKKXCi9DDG2tYCk4ams
6uiHhUSwThm2uU+un0kTQxp5bdXc6OUKGuEtanY8tigwSBSGuzukyE3HOxyIMiTB
4ZChhJNy1OoYxqBwf0TOC8DcLvYyURnXxjq7Ng069FfhiPDzqmvHHEzd6pHJv4Dh
9Y7p6rmLGVJHIf1fW+jU9RhXDAAvZV2MGEQGZhVM65Bg+zV+zFV1D8lfvspZVPdQ
iHzL8gIhxDIaNtJkRjDuO6RtlmfbRr+9RW4lwrOAoK2sNE+rYQFNrY959fvF3UJx
7YKVX63X8nS1UhAa8gojoUYRnf5xFnYgdhbC6ocNBAcJUC58d5a/i5ypr9zKkY1H
PC7HYLZ30wnRhuDF7EKpwhoqyolCnZ+9h0i7e1/Icw9HkRxLaMmAecQYKTu/ZA9V
gwEr4gLHkTI6gbDlYeVAFRwUT+VJU1JzVFAA6fvUcMLyKMjkfjDvb8idOGnSP/Aw
siFa20LZaAQKLINypTiNKx0CpyIKjv7KAcX66hMN/kNdjMIRxYgLzu553AP67K9T
bnOVNcYDYgncxhfVzVjzrbuE7glrwiTHI/+5zjue6n8nRBR2lipnnfFg8O7E2MgP
20xRw+6fxq28wTET0XrApwIOP4DbFYKq+ygZo79tpKXpo38wIUTHJ5tmvYUCAwEA
AaOCAWowggFmMB0GA1UdDgQWBBQRygivI8iEMRXI+lkKMRpXK1stWTCBmAYDVR0j
BIGQMIGNgBSm2llm9abeVvFF+sClgsSL6SW8gKFfpF0wWzELMAkGA1UEBhMCREUx
FDASBgNVBAoMC09TUyBSZWxlYXNlMRQwEgYDVQQLDAtEZXZlbG9wbWVudDEgMB4G
A1UEAwwXdHJ1c3RtZSBHZW5lcmFsIFJvb3QgQ0GCFFk1W2wJq9MW/NfpSBkKbTGA
1/+vMA8GA1UdEwEB/wQFMAMBAf8wCwYDVR0PBAQDAgGGMF8GCCsGAQUFBwEBBFMw
UTAmBggrBgEFBQcwAoYaaHR0cDovL2xvY2FsaG9zdC9kdW1teS5jZXIwJwYIKwYB
BQUHMAGGG2h0dHA6Ly9sb2NhbGhvc3QvZHVtbXktb2NzcDArBgNVHR8EJDAiMCCg
HqAchhpodHRwOi8vbG9jYWxob3N0L2R1bW15LmNybDANBgkqhkiG9w0BAQsFAAOC
AgEAVST7vXLOcmuE0Cf6UI353ZI1aOZmu+fOm2zfXwaLyXee3beR8VRIXC0sC96H
eo88oynTuNOCZhRTaUXnHl0cILS0qJdKvN7+nUWlHyR40fXWKBoJHgUsvrdfylU3
dSOAmdmOW+VKmQvIH1YTOQg/FlyaoaTcUYSkZT3N27PQsyPdTycEs00rJvPFos4T
Dw5BJSJ/QKa/sHgMTBVV2BxOVetq6rKvgzMMnCEc/ajIKE1kGvr+Mv6e6RvGBsgy
EcgfPeMINj337BerZDtP7WHXsd3R21/dFTj4RBwlmTPFtsepAH3Ohr8WDtCv0evI
yo9u39ZdZyrZe6hcqp81/XOM6ti27prIeTi0cVbGydO5eKSiJ2Q8L2TAA4GgOYqF
uYrpdwbs/Rwvb/00QdJOFAdX97y9equ6JoOsvdAG2h6mCDkO/MQTsCrhXv6seIVR
wLsJrIZfJW2nGB12hVtgZ6RZNDFJMbhDMs38SLwkv79FsiVVNVu1Y5mY039QuRbx
9aV00R83PbKVoCkXI0NgzyygcekuUlYH8ZLv2vzZ3WNdRpjqvJbQ83R6jhEVPktY
tN+WgrSSerzelxOCLeYHcLwXjC37m7k18XIO6QaUBT1qVCYfQwcO5UjbwMkn9MuB
nWywDQj7uGKtumbsozVhw7WtRqHYWwBrfKF34lcnbLKOjxA=
-----END CERTIFICATE-----
-----BEGIN CERTIFICATE-----
MIIF7TCCA9WgAwIBAgIUWTVbbAmr0xb81+lIGQptMYDX/68wDQYJKoZIhvcNAQEL
BQAwWzELMAkGA1UEBhMCREUxFDASBgNVBAoMC09TUyBSZWxlYXNlMRQwEgYDVQQL
DAtEZXZlbG9wbWVudDEgMB4GA1UEAwwXdHJ1c3RtZSBHZW5lcmFsIFJvb3QgQ0Ew
HhcNMjEwNzI5MjAyNDEyWhcNMzEwNzI3MjAyNDEyWjBbMQswCQYDVQQGEwJERTEU
MBIGA1UECgwLT1NTIFJlbGVhc2UxFDASBgNVBAsMC0RldmVsb3BtZW50MSAwHgYD
VQQDDBd0cnVzdG1lIEdlbmVyYWwgUm9vdCBDQTCCAiIwDQYJKoZIhvcNAQEBBQAD
ggIPADCCAgoCggIBAMdPsCvF1f6TsLmkCcoTaCXIlfvhZMGMQhhGivEF6lMwwTFq
4utAW6GBTNPP3k2qZVeYb2Y3Ghsyd5/qMc6nah0Oq5YkpNGi2Ul4w4BZrVXVUaSo
p4wox2o+TMTHyQPSsvlgTioU4nZfzv9sz4pCjDoEky7UBAjD3t9NXUOt0GmjI/2w
YOUE++eftvkrCO6Rctct4qQYmD4rELtu5dy9325bNtBe/yV2SCW5RB7kaPo2GThI
AnxtCDS89ckGlo9OqEez/T/cxbAeL4NKsQ/LTGYmuWD0qlSTuzV+P3jSVLEVnnvL
vkZ9ZV0awaNisAbyKd13ZVDPnpu45ZyQRi04TkPKGjkaT3a3jcBWMz3hyWfq4kFG
0ioAYJjzCThXJX8JBFrdOSkIakl9tXpnejwLovCEH8M1lkKieomePseEEHnR5LR6
lk5ZcUxD17f2gDz5LgEmz2M5Cu6L5OES8A2LSarv7XF7YkjKXDBk8ZELpvuphVL2
2bv1lerUQRFijSfgFXG9G/uQoUgkgPlh6dVsZg/n8AoiFlftXl0QPnBcskgMhsAf
4LgtQMlJI18D17BzkbP2z9+oRvgUHC6ap6qCjpHHjJixWENAkell9jY/rRXDUDZM
VVRIc+NnOPmLDK8npz6OMB8LStDp6hAoo9bBZeeKDcZc2wiFkr2FDyfV4vhZAgMB
AAGjgagwgaUwHQYDVR0OBBYEFKbaWWb1pt5W8UX6wKWCxIvpJbyAMA8GA1UdEwEB
/wQFMAMBAf8wDgYDVR0PAQH/BAQDAgEGMDYGCCsGAQUFBwEBBCowKDAmBggrBgEF
BQcwAoYaaHR0cDovL2xvY2FsaG9zdC9kdW1teS5jZXIwKwYDVR0fBCQwIjAgoB6g
HIYaaHR0cDovL2xvY2FsaG9zdC9kdW1teS5jcmwwDQYJKoZIhvcNAQELBQADggIB
AI9x7gYcQ5DCtP0iHxogtrrYovP4GlFctdo/vjNi4VpNeaeq+jdaURqyeDhHvarG
l/OLOQ4OYSz2mpMlD/s/4VysZ8kyrRMlpR11wTUdQ3WJeHx367dN2bE17/wDnHB2
5iJmLCVASrf+sPgPjdYuGPKOnfcA4MNIse+PO5N+5D7LrbolzI4IlbBXkSYu8c4b
IoCWTZ66mdsd9qEEeZHISYuiJpi+CUiD/s6E3YJ1SkLINSh1qBzw/qJY0hB0lJyb
u/5/Qtcgj3sC/fBMnOpqcfn6D5wOXcZy83pEMHugs97CkJwainkdgF1wNdLKM0sZ
j//uavbR1Q5qqARgUPA8wkcU7p2QpKDOZRpqnyliHNTehsIkj2VwCVssWCNU/Dn1
vnAVWjuS+e9lZDyZs2EbwjB7Jte7xDw2BuMTfFCzuxVVaKmcdvBGseEIwsD4BiCk
igQhfZFj6U3Bl7MjMnUiVGXHdgIxIIzhKcmZTzY2zoQLEhFKlJG6p7828BOmD3sE
7D9qVl6NPwQwP/60ITbE7aGfUOOtBQs/6WZ8z/hHrDlqUkZSN9/0J6fibyFxhZL5
WViNGRnRVcBy3SiX27QmZCs6Rx1i97wmUQWGy3cPPMK3K0AcnYICDBSIwUgEEpJ9
6KnmHVkQyAydXKXJ3bI8A2kGxHpwggwidyh+N6Pp58ar
-----END CERTIFICATE-----
