Certificate:
    Data:
        Version: 3 (0x2)
        Serial Number:
            36:e8:21:c8:65:7f:10:2b:82:e6:c7:2d:43:63:7b:af:a2:f5:45:1b
        Signature Algorithm: sha256WithRSAEncryption
        Issuer: C=DE, O=OSS Release, OU=Development, CN=trustme Software Signing Sub CA
        Validity
            Not Before: Jul 29 20:24:10 2021 GMT
            Not After : Jul 28 20:24:10 2024 GMT
        Subject: C=DE, O=OSS Release, OU=Development, CN=trustme Software Signing Certificate
        Subject Public Key Info:
            Public Key Algorithm: rsaEncryption
                RSA Public-Key: (4096 bit)
                Modulus:
                    00:c8:0e:f7:e1:f3:bc:72:32:73:3f:45:67:23:e6:
                    ca:a1:19:a2:47:5c:2c:e4:cf:9f:68:d3:d9:c8:df:
                    51:1a:ae:91:d3:b2:38:a0:18:5f:51:b4:07:9d:73:
                    81:bf:f3:d8:25:0e:ba:84:1e:34:da:ce:db:3c:54:
                    f3:50:65:fe:7b:c7:8d:d0:1a:c1:be:be:f6:f6:aa:
                    61:0f:6c:3a:ee:85:c8:bb:05:bf:03:bb:63:44:ba:
                    6d:67:c5:29:77:b9:6f:87:1c:3f:bd:6e:3c:09:3d:
                    0b:1c:41:ef:ea:20:b7:43:b5:00:73:c8:34:3d:1d:
                    aa:61:cd:12:5c:06:4b:63:3a:51:2d:39:e0:3c:48:
                    a3:1c:f0:82:e2:42:a1:2f:5a:4c:6b:fa:61:65:8e:
                    ab:97:f9:db:7e:4e:f5:39:68:41:6a:4c:11:23:72:
                    e6:30:d1:85:0b:aa:7e:5a:5d:da:fe:90:21:70:02:
                    6b:52:4a:15:83:ec:c9:6d:fb:fe:a2:02:56:7c:ef:
                    db:d4:49:94:83:ef:34:0e:61:fd:87:13:d6:f6:b8:
                    c1:38:78:e6:2b:2e:da:ef:62:1d:7a:fe:a2:7a:4e:
                    be:71:c3:f4:36:56:1a:3e:5f:02:87:03:45:81:b3:
                    1b:0a:5a:3c:d6:18:52:c7:a2:e1:ff:8f:84:26:70:
                    65:29:1a:af:da:c7:72:45:6b:4d:93:c4:ed:f6:3e:
                    79:67:70:a4:f8:7c:a6:b8:29:94:11:d8:e6:d2:04:
                    b0:d8:5e:8c:cd:12:88:f7:d7:3c:48:85:44:64:11:
                    8b:57:09:d8:e8:35:14:9a:af:79:4e:d1:be:43:d7:
                    60:7d:b5:61:a9:89:cf:e4:83:32:56:d0:41:7b:58:
                    c3:62:84:b1:07:47:92:17:0c:b5:32:90:77:a7:5b:
                    90:e9:5e:42:88:da:d1:59:68:db:85:ee:fe:e7:1f:
                    4e:c1:f4:d0:0b:9f:07:bd:5d:13:3f:5b:60:39:4d:
                    93:d6:da:8a:60:65:52:c6:1d:62:35:8c:f7:fd:ed:
                    f1:a1:e0:7c:fc:ea:95:e6:9a:4d:2d:a6:e1:a2:b0:
                    64:d7:a9:54:fe:f0:0d:4a:09:ec:35:ea:1b:72:b6:
                    40:f7:5e:e2:f3:1c:aa:a8:2d:df:43:9d:ca:59:8e:
                    55:2c:43:08:7d:4a:cc:76:eb:74:0d:6d:56:a1:1c:
                    c4:f6:c2:a2:e9:6e:5d:bf:bf:bf:3c:da:d0:21:5d:
                    37:a1:04:72:82:cb:ea:81:a5:e8:a1:27:11:cc:0d:
                    4d:75:25:b6:82:48:3b:8b:e6:ac:ae:99:10:67:18:
                    fc:4f:eb:aa:94:bc:a0:c8:f9:33:37:a8:4a:ca:0b:
                    17:0b:4f
                Exponent: 65537 (0x10001)
        X509v3 extensions:
            X509v3 Subject Key Identifier: 
                34:CC:63:3D:84:21:4D:C4:C2:55:B3:32:A8:27:7C:0A:8E:8A:53:B8
            X509v3 Authority Key Identifier: 
                keyid:13:B2:A6:D0:7F:18:C5:39:5C:60:71:63:AB:5E:07:BB:34:CA:03:02
                DirName:/C=DE/O=OSS Release/OU=Development/CN=trustme Software Signing Root CA
                serial:18:43:4C:D7:8E:36:42:6B:41:5F:B6:29:A1:34:8A:A9:55:12:C8:E1

            X509v3 Basic Constraints: critical
                CA:FALSE
            X509v3 Key Usage: critical
                Digital Signature, Non Repudiation, Key Encipherment
            Authority Information Access: 
                CA Issuers - URI:http://localhost/ssig-dummy.cer
                OCSP - URI:http://localhost/ssig-dummy-ocsp

            X509v3 CRL Distribution Points: 

                Full Name:
                  URI:http://localhost/ssig-dummy.crl

    Signature Algorithm: sha256WithRSAEncryption
         7b:8a:65:9c:ef:47:37:b9:52:3c:b5:64:c8:db:1d:af:3c:ee:
         8f:39:1e:1e:e7:39:0a:9e:61:d2:6e:69:81:cc:ff:92:7f:45:
         fd:d3:f1:37:b4:21:3f:65:48:69:a8:56:61:62:0d:5f:33:76:
         63:22:85:20:36:f4:ce:c2:01:fb:1e:bd:ce:3e:cd:40:5e:10:
         5f:79:05:35:09:a5:e0:86:eb:72:97:29:af:20:f9:6c:89:c6:
         d5:55:d4:e9:53:16:36:44:d4:03:65:13:bc:a5:ed:f0:93:b3:
         84:24:6a:54:e9:1e:eb:a2:13:7e:65:0a:17:b8:8a:e4:5b:ec:
         2f:c2:51:d3:6f:a8:48:45:2b:0e:30:61:a6:1f:39:cb:ea:b3:
         32:26:43:4e:87:90:55:02:61:98:00:dc:84:61:4e:5c:38:66:
         f5:c5:f2:7c:2f:aa:45:43:39:94:92:ae:aa:fd:5c:90:75:d0:
         b1:09:9d:b2:38:28:37:be:c9:41:63:62:e8:d5:f8:8c:4b:d2:
         23:dc:d8:3a:61:09:2d:1c:32:41:90:f2:e2:d4:b1:52:be:03:
         17:a4:31:a7:66:3f:28:c1:ab:c6:37:46:2b:08:1b:6c:6f:c1:
         79:08:10:f6:8b:b5:9f:5b:b9:8e:20:fa:02:46:36:e5:1d:16:
         ef:54:5e:c3:f3:14:bb:76:d1:72:17:1b:a0:4c:e6:e4:f7:92:
         e4:f5:78:ee:37:23:45:2f:ce:04:92:0e:56:0e:e3:34:b2:93:
         bf:bf:70:29:ba:7c:24:d6:6e:d9:c5:ca:bc:14:81:e5:70:a1:
         bc:64:b5:d7:e9:c1:f7:a8:c2:bb:8c:ef:bb:2b:22:9a:d9:1b:
         ed:1d:19:4d:fc:f2:66:88:c4:2b:c1:fd:ef:ce:08:44:dd:1a:
         51:ba:e9:04:e5:a5:4b:7d:96:9e:2e:4b:a4:e6:f0:b9:de:17:
         76:17:55:2f:77:93:c7:23:2a:bd:a7:47:9a:ab:ae:d8:48:ad:
         43:b8:ab:5f:04:fa:0d:6b:2f:71:6f:c3:6c:ea:44:be:4a:8a:
         d0:e5:3b:58:95:75:9c:de:dd:d1:06:de:77:a4:84:83:c2:c3:
         c6:2b:c8:0b:0b:0b:a2:6b:a2:e0:66:ce:31:34:70:c8:e5:7c:
         83:f1:66:fd:d0:1a:57:0c:a7:a8:38:bc:10:17:0e:4b:af:96:
         4f:b3:e9:f8:4f:b3:ff:81:99:72:82:e1:bd:57:71:7d:8a:25:
         86:45:6a:b4:3e:c9:9e:aa:41:66:41:1b:b5:f5:c9:d9:c4:f5:
         eb:e4:65:04:b6:d4:82:b4:97:b6:6c:24:f4:95:82:d9:c2:44:
         02:29:20:00:a8:2a:27:6d
-----BEGIN CERTIFICATE-----
MIIG3TCCBMWgAwIBAgIUNughyGV/ECuC5sctQ2N7r6L1RRswDQYJKoZIhvcNAQEL
BQAwYzELMAkGA1UEBhMCREUxFDASBgNVBAoMC09TUyBSZWxlYXNlMRQwEgYDVQQL
DAtEZXZlbG9wbWVudDEoMCYGA1UEAwwfdHJ1c3RtZSBTb2Z0d2FyZSBTaWduaW5n
IFN1YiBDQTAeFw0yMTA3MjkyMDI0MTBaFw0yNDA3MjgyMDI0MTBaMGgxCzAJBgNV
BAYTAkRFMRQwEgYDVQQKDAtPU1MgUmVsZWFzZTEUMBIGA1UECwwLRGV2ZWxvcG1l
bnQxLTArBgNVBAMMJHRydXN0bWUgU29mdHdhcmUgU2lnbmluZyBDZXJ0aWZpY2F0
ZTCCAiIwDQYJKoZIhvcNAQEBBQADggIPADCCAgoCggIBAMgO9+HzvHIycz9FZyPm
yqEZokdcLOTPn2jT2cjfURqukdOyOKAYX1G0B51zgb/z2CUOuoQeNNrO2zxU81Bl
/nvHjdAawb6+9vaqYQ9sOu6FyLsFvwO7Y0S6bWfFKXe5b4ccP71uPAk9CxxB7+og
t0O1AHPIND0dqmHNElwGS2M6US054DxIoxzwguJCoS9aTGv6YWWOq5f5235O9Tlo
QWpMESNy5jDRhQuqflpd2v6QIXACa1JKFYPsyW37/qICVnzv29RJlIPvNA5h/YcT
1va4wTh45isu2u9iHXr+onpOvnHD9DZWGj5fAocDRYGzGwpaPNYYUsei4f+PhCZw
ZSkar9rHckVrTZPE7fY+eWdwpPh8prgplBHY5tIEsNhejM0SiPfXPEiFRGQRi1cJ
2Og1FJqveU7RvkPXYH21YamJz+SDMlbQQXtYw2KEsQdHkhcMtTKQd6dbkOleQoja
0Vlo24Xu/ucfTsH00AufB71dEz9bYDlNk9baimBlUsYdYjWM9/3t8aHgfPzqleaa
TS2m4aKwZNepVP7wDUoJ7DXqG3K2QPde4vMcqqgt30OdylmOVSxDCH1KzHbrdA1t
VqEcxPbCouluXb+/vzza0CFdN6EEcoLL6oGl6KEnEcwNTXUltoJIO4vmrK6ZEGcY
/E/rqpS8oMj5MzeoSsoLFwtPAgMBAAGjggGCMIIBfjAdBgNVHQ4EFgQUNMxjPYQh
TcTCVbMyqCd8Co6KU7gwgaEGA1UdIwSBmTCBloAUE7Km0H8YxTlcYHFjq14HuzTK
AwKhaKRmMGQxCzAJBgNVBAYTAkRFMRQwEgYDVQQKDAtPU1MgUmVsZWFzZTEUMBIG
A1UECwwLRGV2ZWxvcG1lbnQxKTAnBgNVBAMMIHRydXN0bWUgU29mdHdhcmUgU2ln
bmluZyBSb290IENBghQYQ0zXjjZCa0FftimhNIqpVRLI4TAMBgNVHRMBAf8EAjAA
MA4GA1UdDwEB/wQEAwIF4DBpBggrBgEFBQcBAQRdMFswKwYIKwYBBQUHMAKGH2h0
dHA6Ly9sb2NhbGhvc3Qvc3NpZy1kdW1teS5jZXIwLAYIKwYBBQUHMAGGIGh0dHA6
Ly9sb2NhbGhvc3Qvc3NpZy1kdW1teS1vY3NwMDAGA1UdHwQpMCcwJaAjoCGGH2h0
dHA6Ly9sb2NhbGhvc3Qvc3NpZy1kdW1teS5jcmwwDQYJKoZIhvcNAQELBQADggIB
AHuKZZzvRze5Ujy1ZMjbHa887o85Hh7nOQqeYdJuaYHM/5J/Rf3T8Te0IT9lSGmo
VmFiDV8zdmMihSA29M7CAfsevc4+zUBeEF95BTUJpeCG63KXKa8g+WyJxtVV1OlT
FjZE1ANlE7yl7fCTs4QkalTpHuuiE35lChe4iuRb7C/CUdNvqEhFKw4wYaYfOcvq
szImQ06HkFUCYZgA3IRhTlw4ZvXF8nwvqkVDOZSSrqr9XJB10LEJnbI4KDe+yUFj
YujV+IxL0iPc2DphCS0cMkGQ8uLUsVK+AxekMadmPyjBq8Y3RisIG2xvwXkIEPaL
tZ9buY4g+gJGNuUdFu9UXsPzFLt20XIXG6BM5uT3kuT1eO43I0UvzgSSDlYO4zSy
k7+/cCm6fCTWbtnFyrwUgeVwobxktdfpwfeowruM77srIprZG+0dGU388maIxCvB
/e/OCETdGlG66QTlpUt9lp4uS6Tm8LneF3YXVS93k8cjKr2nR5qrrthIrUO4q18E
+g1rL3Fvw2zqRL5KitDlO1iVdZze3dEG3nekhIPCw8YryAsLC6JrouBmzjE0cMjl
fIPxZv3QGlcMp6g4vBAXDkuvlk+z6fhPs/+BmXKC4b1XcX2KJYZFarQ+yZ6qQWZB
G7X1ydnE9evkZQS21IK0l7ZsJPSVgtnCRAIpIACoKidt
-----END CERTIFICATE-----
Certificate:
    Data:
        Version: 3 (0x2)
        Serial Number:
            18:43:4c:d7:8e:36:42:6b:41:5f:b6:29:a1:34:8a:a9:55:12:c8:e1
        Signature Algorithm: sha256WithRSAEncryption
        Issuer: C=DE, O=OSS Release, OU=Development, CN=trustme Software Signing Root CA
        Validity
            Not Before: Jul 29 20:24:10 2021 GMT
            Not After : Jul 28 20:24:10 2027 GMT
        Subject: C=DE, O=OSS Release, OU=Development, CN=trustme Software Signing Sub CA
        Subject Public Key Info:
            Public Key Algorithm: rsaEncryption
                RSA Public-Key: (4096 bit)
                Modulus:
                    00:c7:af:7d:b2:a5:74:a9:8b:f8:ac:e2:7b:06:c6:
                    52:41:e0:dc:ff:b2:61:ba:fa:35:ff:b1:dc:0d:d9:
                    3c:27:e3:67:a6:bb:2a:ca:60:6c:cb:7f:ed:15:b1:
                    79:de:14:7e:b7:ea:f0:fd:57:95:c6:5a:98:d9:db:
                    07:12:0f:19:8e:ea:a4:8b:fb:01:aa:1c:cd:33:ea:
                    cf:f4:7d:c4:6f:74:29:e8:c1:80:d7:49:1d:3e:93:
                    d5:af:8e:1e:47:a7:b4:88:0f:b7:a6:b1:56:4a:e1:
                    28:ec:76:f1:97:fd:7b:4c:34:df:d9:5a:ac:50:86:
                    10:63:b3:d4:8e:ff:9c:62:3d:d4:fe:9c:30:b6:b6:
                    86:fa:cb:e6:ca:ff:4e:3f:a8:3f:38:7d:c8:31:d1:
                    9a:1d:db:a7:53:7d:28:ae:84:97:a3:8a:d7:f8:98:
                    90:27:63:22:d1:55:b2:0a:71:99:bd:5f:68:16:ae:
                    7a:aa:87:2c:ee:c2:bb:76:1f:89:de:be:ce:44:73:
                    33:9e:2e:5d:9c:4c:a3:7b:7d:8a:f8:28:f0:5d:2a:
                    ab:d3:77:1f:fa:da:83:2e:d4:38:7f:d4:06:c8:aa:
                    fa:4a:fa:8a:59:1b:a4:89:92:77:66:f8:c0:9f:40:
                    ea:21:3f:4b:e1:96:c2:ad:54:71:cb:32:01:cf:f1:
                    e5:a5:0c:ad:77:04:28:4e:cf:1c:c4:fa:f3:0f:88:
                    f5:d4:c0:e6:fa:9c:27:57:2e:a5:f4:8f:6f:b4:0b:
                    8b:ea:d4:6d:98:a6:3d:98:33:a7:80:c7:6d:3e:6a:
                    07:7c:96:42:eb:06:9c:1e:d1:c5:1e:84:c3:e7:58:
                    58:12:df:c4:99:a0:ea:bf:ec:81:e1:5c:0f:e4:6e:
                    a5:46:cd:4d:e5:ca:11:65:78:62:ff:55:48:df:da:
                    b3:68:23:88:30:26:7a:1f:4b:b3:84:89:52:9d:12:
                    35:74:90:8a:95:7e:60:1a:97:a0:8b:49:df:08:b5:
                    d4:25:3b:fb:88:9f:b4:28:79:c5:0e:a6:87:80:91:
                    36:31:a8:17:b9:0a:b9:c9:7e:72:35:00:f4:50:99:
                    bc:ef:fc:97:b2:4e:7c:f0:04:8d:64:06:ab:87:3e:
                    a6:dd:35:bc:7f:26:b2:27:ba:6b:17:1b:6d:1c:a8:
                    83:7f:6c:d2:7b:55:db:ec:e8:e0:29:63:e2:4f:19:
                    18:5d:37:43:2f:f7:da:ec:80:a8:53:2e:13:20:d7:
                    49:0e:9e:7e:a3:e4:c3:22:c9:b9:37:c9:2c:63:28:
                    bb:2f:4c:c0:c3:7f:c7:f6:69:91:b4:30:1c:33:bd:
                    7c:00:52:81:14:43:1e:09:db:64:3f:6c:49:67:e1:
                    57:4a:d1
                Exponent: 65537 (0x10001)
        X509v3 extensions:
            X509v3 Subject Key Identifier: 
                13:B2:A6:D0:7F:18:C5:39:5C:60:71:63:AB:5E:07:BB:34:CA:03:02
            X509v3 Authority Key Identifier: 
                keyid:C5:DC:D1:4A:80:12:B3:CF:93:D7:12:D4:86:95:CF:4D:F1:D4:03:C6
                DirName:/C=DE/O=OSS Release/OU=Development/CN=trustme Software Signing Root CA
                serial:5A:32:F4:5C:B5:2D:97:06:24:B0:FD:83:C5:63:C8:B7:A3:23:C8:46

            X509v3 Basic Constraints: critical
                CA:TRUE
            X509v3 Key Usage: critical
                Certificate Sign, CRL Sign
            Authority Information Access: 
                CA Issuers - URI:http://localhost/ssig-dummy.cer
                OCSP - URI:http://localhost/ssig-dummy-ocsp

            X509v3 CRL Distribution Points: 

                Full Name:
                  URI:http://localhost/ssig-dummy.crl

    Signature Algorithm: sha256WithRSAEncryption
         50:80:75:cc:b3:40:51:5a:ef:82:8f:82:39:e3:9e:7f:dd:52:
         73:b7:f4:79:5b:af:fc:6a:ba:9b:ec:95:e4:63:b7:cc:c8:68:
         e4:27:6d:26:5e:7f:17:2b:5b:a5:9b:59:27:a5:22:c3:a5:19:
         ef:af:85:fa:5f:88:e0:f8:95:05:ba:4e:d7:9f:45:49:14:28:
         1c:03:69:a9:1c:c1:8d:1c:f9:9e:f1:0d:1f:e4:bd:01:bf:2c:
         f2:d6:cb:3c:1e:ff:28:5f:91:c3:c5:4f:21:5a:fa:08:84:23:
         0e:5c:e8:90:51:19:93:75:2d:6a:30:d9:3e:3d:e2:c8:5c:95:
         07:a9:5d:34:8b:59:b1:27:fb:a9:81:53:f1:07:cb:d7:af:75:
         b6:ec:a1:9f:54:74:0a:a2:ee:67:75:65:a3:2b:52:e6:c3:5f:
         bf:70:47:00:2e:44:87:ce:67:97:73:29:42:0d:98:c0:b5:a3:
         06:fd:10:84:46:8f:04:a6:ab:67:24:3a:2e:eb:e1:a2:67:73:
         61:31:14:39:b3:2f:ea:69:49:12:a2:5a:08:77:da:90:bd:0b:
         83:d2:e4:30:3b:18:1b:a6:8e:3a:ed:33:75:5a:5d:0b:0c:4d:
         9f:c3:98:16:84:14:ed:b0:23:bc:2b:17:fe:db:dd:21:90:c6:
         6a:cb:86:99:cf:6f:d0:9e:01:aa:ea:9b:f4:7d:6d:5f:ca:ce:
         19:66:a6:ef:bf:33:2d:b1:d3:c6:2d:a4:8d:12:8e:ba:e0:f7:
         c5:67:b1:87:19:94:f8:58:43:6f:1b:0b:70:0d:aa:25:ca:ed:
         1a:98:14:ee:66:d1:55:f5:d9:7a:e3:31:73:fc:aa:ff:89:d6:
         c7:32:e2:c5:ea:55:63:51:ce:22:c5:31:76:7a:1a:c9:f9:80:
         29:bb:9a:8d:5d:6a:22:77:21:bd:48:82:f0:7b:6d:24:b6:3a:
         1d:4c:2e:9c:54:b2:9d:39:1e:c9:4e:8a:95:3d:aa:e7:49:ee:
         75:a7:cd:99:1c:f2:7d:04:d3:f4:59:aa:29:bf:b2:3e:59:33:
         27:01:8a:39:a0:eb:cb:42:45:0a:0d:fb:99:7c:f3:23:e5:28:
         4c:d3:13:31:a0:59:9f:9a:36:49:be:b4:ca:ca:7a:ae:eb:c1:
         32:63:ea:89:98:92:13:68:7d:e2:88:aa:ec:02:89:51:b5:55:
         f8:48:f0:5b:93:95:cb:a1:97:4f:2e:70:52:14:7e:be:e9:04:
         de:f3:a8:65:4a:32:16:2f:51:8d:e2:cd:b1:a0:b1:e4:86:33:
         8a:14:31:28:63:f4:7f:8e:f4:e5:f0:e5:ee:01:72:52:e2:0b:
         f7:f7:9e:c2:c3:b5:65:f4
-----BEGIN CERTIFICATE-----
MIIG3DCCBMSgAwIBAgIUGENM1442QmtBX7YpoTSKqVUSyOEwDQYJKoZIhvcNAQEL
BQAwZDELMAkGA1UEBhMCREUxFDASBgNVBAoMC09TUyBSZWxlYXNlMRQwEgYDVQQL
DAtEZXZlbG9wbWVudDEpMCcGA1UEAwwgdHJ1c3RtZSBTb2Z0d2FyZSBTaWduaW5n
IFJvb3QgQ0EwHhcNMjEwNzI5MjAyNDEwWhcNMjcwNzI4MjAyNDEwWjBjMQswCQYD
VQQGEwJERTEUMBIGA1UECgwLT1NTIFJlbGVhc2UxFDASBgNVBAsMC0RldmVsb3Bt
ZW50MSgwJgYDVQQDDB90cnVzdG1lIFNvZnR3YXJlIFNpZ25pbmcgU3ViIENBMIIC
IjANBgkqhkiG9w0BAQEFAAOCAg8AMIICCgKCAgEAx699sqV0qYv4rOJ7BsZSQeDc
/7Jhuvo1/7HcDdk8J+NnprsqymBsy3/tFbF53hR+t+rw/VeVxlqY2dsHEg8Zjuqk
i/sBqhzNM+rP9H3Eb3Qp6MGA10kdPpPVr44eR6e0iA+3prFWSuEo7Hbxl/17TDTf
2VqsUIYQY7PUjv+cYj3U/pwwtraG+svmyv9OP6g/OH3IMdGaHdunU30oroSXo4rX
+JiQJ2Mi0VWyCnGZvV9oFq56qocs7sK7dh+J3r7ORHMzni5dnEyje32K+CjwXSqr
03cf+tqDLtQ4f9QGyKr6SvqKWRukiZJ3ZvjAn0DqIT9L4ZbCrVRxyzIBz/HlpQyt
dwQoTs8cxPrzD4j11MDm+pwnVy6l9I9vtAuL6tRtmKY9mDOngMdtPmoHfJZC6wac
HtHFHoTD51hYEt/EmaDqv+yB4VwP5G6lRs1N5coRZXhi/1VI39qzaCOIMCZ6H0uz
hIlSnRI1dJCKlX5gGpegi0nfCLXUJTv7iJ+0KHnFDqaHgJE2MagXuQq5yX5yNQD0
UJm87/yXsk588ASNZAarhz6m3TW8fyayJ7prFxttHKiDf2zSe1Xb7OjgKWPiTxkY
XTdDL/fa7ICoUy4TINdJDp5+o+TDIsm5N8ksYyi7L0zAw3/H9mmRtDAcM718AFKB
FEMeCdtkP2xJZ+FXStECAwEAAaOCAYUwggGBMB0GA1UdDgQWBBQTsqbQfxjFOVxg
cWOrXge7NMoDAjCBoQYDVR0jBIGZMIGWgBTF3NFKgBKzz5PXEtSGlc9N8dQDxqFo
pGYwZDELMAkGA1UEBhMCREUxFDASBgNVBAoMC09TUyBSZWxlYXNlMRQwEgYDVQQL
DAtEZXZlbG9wbWVudDEpMCcGA1UEAwwgdHJ1c3RtZSBTb2Z0d2FyZSBTaWduaW5n
IFJvb3QgQ0GCFFoy9Fy1LZcGJLD9g8VjyLejI8hGMA8GA1UdEwEB/wQFMAMBAf8w
DgYDVR0PAQH/BAQDAgEGMGkGCCsGAQUFBwEBBF0wWzArBggrBgEFBQcwAoYfaHR0
cDovL2xvY2FsaG9zdC9zc2lnLWR1bW15LmNlcjAsBggrBgEFBQcwAYYgaHR0cDov
L2xvY2FsaG9zdC9zc2lnLWR1bW15LW9jc3AwMAYDVR0fBCkwJzAloCOgIYYfaHR0
cDovL2xvY2FsaG9zdC9zc2lnLWR1bW15LmNybDANBgkqhkiG9w0BAQsFAAOCAgEA
UIB1zLNAUVrvgo+COeOef91Sc7f0eVuv/Gq6m+yV5GO3zMho5CdtJl5/FytbpZtZ
J6Uiw6UZ76+F+l+I4PiVBbpO159FSRQoHANpqRzBjRz5nvENH+S9Ab8s8tbLPB7/
KF+Rw8VPIVr6CIQjDlzokFEZk3UtajDZPj3iyFyVB6ldNItZsSf7qYFT8QfL1691
tuyhn1R0CqLuZ3VloytS5sNfv3BHAC5Eh85nl3MpQg2YwLWjBv0QhEaPBKarZyQ6
LuvhomdzYTEUObMv6mlJEqJaCHfakL0Lg9LkMDsYG6aOOu0zdVpdCwxNn8OYFoQU
7bAjvCsX/tvdIZDGasuGmc9v0J4Bquqb9H1tX8rOGWam778zLbHTxi2kjRKOuuD3
xWexhxmU+FhDbxsLcA2qJcrtGpgU7mbRVfXZeuMxc/yq/4nWxzLixepVY1HOIsUx
dnoayfmAKbuajV1qInchvUiC8HttJLY6HUwunFSynTkeyU6KlT2q50nudafNmRzy
fQTT9FmqKb+yPlkzJwGKOaDry0JFCg37mXzzI+UoTNMTMaBZn5o2Sb60ysp6ruvB
MmPqiZiSE2h94oiq7AKJUbVV+EjwW5OVy6GXTy5wUhR+vukE3vOoZUoyFi9RjeLN
saCx5IYzihQxKGP0f4705fDl7gFyUuIL9/eewsO1ZfQ=
-----END CERTIFICATE-----
-----BEGIN CERTIFICATE-----
MIIGCTCCA/GgAwIBAgIUWjL0XLUtlwYksP2DxWPIt6MjyEYwDQYJKoZIhvcNAQEL
BQAwZDELMAkGA1UEBhMCREUxFDASBgNVBAoMC09TUyBSZWxlYXNlMRQwEgYDVQQL
DAtEZXZlbG9wbWVudDEpMCcGA1UEAwwgdHJ1c3RtZSBTb2Z0d2FyZSBTaWduaW5n
IFJvb3QgQ0EwHhcNMjEwNzI5MjAyNDEwWhcNMzEwNzI3MjAyNDEwWjBkMQswCQYD
VQQGEwJERTEUMBIGA1UECgwLT1NTIFJlbGVhc2UxFDASBgNVBAsMC0RldmVsb3Bt
ZW50MSkwJwYDVQQDDCB0cnVzdG1lIFNvZnR3YXJlIFNpZ25pbmcgUm9vdCBDQTCC
AiIwDQYJKoZIhvcNAQEBBQADggIPADCCAgoCggIBALy22zIS/bitek2tqjWqjKrQ
Fhr3cfdIw8tR60uRQQic2ZOqfPgUB7Po6lQ0Rn1cfy2qYg02483IxM73aZcDfwqH
gYqx1ewasW6F+gCEd/csGkS2opTChtJXcJVvOdt5mUb9HkCqVH3l2MkPN/su5IW6
DUtlEI3bECs0ZVFAqmEBYW31ZJVvi9so56WK1zb0/4Gw95rUGKAXZd6oEJesuG9z
bS6AsD6tIEG5li71niU72BsmpuQ1bJKQvsINvi3C8OY6ls113tOgeBCfNcFcd6sw
Vb4FAoK9QVQ1LmIBql31U5sJz56buLdy0jopK5i3g4IuG357ngu2TATiMJG2/jPe
MHcwmtin0bvtSQrlZx5mTYRCgvv/Hc5U9y/xPyjcQCxYSqADDGVvnpcvhAjg/rEH
NxS/0kFG4QTT/AhPMLIWzJE90PIFQVVxMplkZ7v5Sn36MUOFRfiwFd6d9wsN7zKM
y+rhSAMssbw8t7Np//rg+hSP0sYBPNQDrCtO5OGGpHxxqIKIYTG8XV71/c12WBP0
Dcss5S3fMfpnFS/hxx8/DnoF35rXjBqhVHsmIuPNoj5kP35rj8PtFHRIB8Oh7a50
ePtGpdKkKr0GjmL/o3lKMU/DgJholgnql1e73BcKsDlKU79Bc7rAeSPO4A9bD20q
ihhnybx9O3vOfIjK+vvVAgMBAAGjgbIwga8wHQYDVR0OBBYEFMXc0UqAErPPk9cS
1IaVz03x1APGMA8GA1UdEwEB/wQFMAMBAf8wDgYDVR0PAQH/BAQDAgEGMDsGCCsG
AQUFBwEBBC8wLTArBggrBgEFBQcwAoYfaHR0cDovL2xvY2FsaG9zdC9zc2lnLWR1
bW15LmNlcjAwBgNVHR8EKTAnMCWgI6Ahhh9odHRwOi8vbG9jYWxob3N0L3NzaWct
ZHVtbXkuY3JsMA0GCSqGSIb3DQEBCwUAA4ICAQCl01M4hT7fPAAXD91CDqTBaavV
rRWWOoaYqADfUaw9OTbzPQN2d141Jevc7WgiwXYONVqvUMMxDhtpjlSly4+0lB9F
X/mw5eOuvz/zVI/IgrvlaeTB8eeNCO6LcFnY110bZlu4WhlzukOO+sxZtwt6V9gB
pTaYQGs8lZz+ekvgj3NlzCUlE69nfi9PwLMfZGOX3eraclA8f+Dph3hWPptcsaBz
L3hwZZPz2/P/hzR3LoGQGwx9BjaRay5RhAQgsf9mQccEcdBv7+0hfsq9MyXiNSyw
YxVo2mbY/YsbLvykKbb+M7aM0u5sUzTkHTpkBjp+iYpmnX8qs8oaLqHpD1kJJajo
UObpElye5mOt1sIS4yqnG+vCFuyFLHRxLNNGDN/KX7IoDzKLTqOngJvzEmCOEHcB
ahBb9shnLlfzOPwQf9LU0POrVzufEYmO2KXwh/uUQk9moPm9mPN2KtVj242YxJMI
75SfZ4OSYHow5N89FvKn/X8OwZi8QlWnoVCMbBfMGkwQfv+ihjT/pWPSI9ZzaSYG
2XnzqrXIwowo+1xJMWAIxum18NlvohVU4eat0HGuZwnZMuFnSr2oQLxh2CREcr+2
1POzJzPt8zRwGv8hlVWYU7Hu6tvwSKgLMWpOHy5TsJ8g1As25rDNrJcsPp166f9N
Z6cORi+xkOi4pd598A==
-----END CERTIFICATE-----
