Certificate:
    Data:
        Version: 3 (0x2)
        Serial Number:
            1a:93:0c:6b:b5:5a:5c:3b:ef:cb:83:48:f0:db:20:7f:6c:0f:c1:66
        Signature Algorithm: rsassaPss         
         Hash Algorithm: sha256
         Mask Algorithm: mgf1 with sha256
          Salt Length: 0xDE
         Trailer Field: 0xBC (default)
        Issuer: C=DE, O=OSS Release, OU=Development, CN=trustme Backend Sub CA
        Validity
            Not Before: Jul 29 20:23:09 2021 GMT
            Not After : Jul 28 20:23:09 2024 GMT
        Subject: C=DE, O=OSS Release, OU=Development, CN=trustme Backend Certificate
        Subject Public Key Info:
            Public Key Algorithm: rsassaPss
                RSA-PSS Public-Key: (2048 bit)
                Modulus:
                    00:b1:ff:2c:46:35:90:38:a9:2f:a2:9c:70:33:67:
                    ab:f8:56:f6:3a:51:b2:61:99:04:3d:ea:b0:d8:fa:
                    83:07:66:3a:b4:2d:e1:1b:88:cc:b5:c6:2d:4c:f0:
                    f0:88:88:55:2f:ef:a8:7d:1f:1e:20:ab:26:33:b2:
                    b7:6d:1d:62:a8:a6:fa:7f:de:95:a9:09:46:7b:28:
                    d0:ed:74:cd:e1:5a:27:93:d0:af:7f:5e:c6:7c:b4:
                    29:80:bf:b4:93:7c:9d:f8:c7:1b:ae:fe:bd:38:b9:
                    91:ef:2b:9e:ad:ee:92:ee:fc:e6:97:83:b5:30:0d:
                    95:04:79:01:ca:40:41:5f:a0:2f:d1:80:b1:8c:0f:
                    4e:02:f0:fb:8a:4f:2f:f6:5b:78:45:4f:c8:33:96:
                    35:47:d0:af:c6:c6:45:a8:50:92:59:80:2d:ac:96:
                    84:c1:46:a6:ae:37:7a:42:ea:0d:50:33:e7:47:0e:
                    aa:65:3d:0c:4c:97:7b:af:ba:6a:f4:3a:0c:b7:0d:
                    f8:9b:5a:b5:cc:6d:e7:81:28:37:06:28:7e:29:67:
                    de:ea:2b:15:a4:1d:ec:ae:48:6e:79:d7:26:3a:d1:
                    e9:f1:39:98:b9:bc:09:7d:d5:75:79:46:98:51:81:
                    b2:22:30:3d:87:d4:8b:ed:79:ae:e2:b5:b9:12:28:
                    1b:c7
                Exponent: 65537 (0x10001)
                No PSS parameter restrictions
        X509v3 extensions:
            X509v3 Subject Key Identifier: 
                21:BF:34:8F:16:DC:90:58:74:E8:1B:D2:A7:86:B0:59:94:78:64:68
            X509v3 Authority Key Identifier: 
                keyid:8F:D1:3E:4A:FE:D9:5E:9C:E6:00:B1:37:CE:0C:9B:B5:BC:60:1A:EF
                DirName:/C=DE/O=OSS Release/OU=Development/CN=trustme General Root CA
                serial:0A:7A:DF:83:51:25:D6:E1:B1:05:1F:A5:4E:81:EF:10:8D:33:B3:2D

            X509v3 Basic Constraints: critical
                CA:FALSE
            X509v3 Key Usage: critical
                Digital Signature, Non Repudiation, Key Encipherment
            X509v3 Extended Key Usage: 
                TLS Web Server Authentication
            Authority Information Access: 
                CA Issuers - URI:http://localhost/dummy.cer
                OCSP - URI:http://localhost/dummy-ocsp

            X509v3 CRL Distribution Points: 

                Full Name:
                  URI:http://localhost/dummy.crl

    Signature Algorithm: rsassaPss         
         Hash Algorithm: sha256
         Mask Algorithm: mgf1 with sha256
          Salt Length: 0xDE
         Trailer Field: 0xBC (default)

         38:ec:2f:ec:53:cf:bf:ba:27:72:b0:c1:fc:fc:da:65:00:a1:
         6e:69:25:7e:07:ae:17:e2:81:d9:ac:5c:0a:95:c0:1e:af:49:
         79:fc:2e:f3:96:b4:13:34:83:37:0c:a7:db:d3:4d:16:e8:0c:
         69:7d:72:8f:ab:ac:60:fc:c4:29:05:ff:d5:dd:2d:1d:0b:cb:
         94:30:bf:1b:89:06:2f:27:4a:01:3b:2b:ec:c6:35:0f:9f:14:
         b8:8c:f8:cb:05:8e:15:03:bb:4e:33:b3:fd:46:3c:b5:68:2d:
         ef:31:d9:3a:8e:6f:d2:6f:df:f8:58:2a:a6:95:2a:da:f6:52:
         16:dc:5d:ce:71:c3:80:ac:2a:50:f8:83:12:8f:9c:b9:64:ec:
         70:01:33:34:ed:3a:33:0c:06:fd:38:dc:f2:0e:24:7b:a7:3f:
         f9:ba:47:73:63:f9:88:87:b1:2b:64:db:e6:c5:e2:0b:df:9c:
         8a:3f:72:09:f0:c3:28:cd:8b:39:58:92:e6:d0:43:7d:1c:57:
         0f:3d:0c:d1:22:c6:cf:2c:0d:23:fa:d3:09:de:f0:93:88:8b:
         d6:83:53:99:e8:b7:76:0d:79:05:27:73:57:db:3e:e5:ef:14:
         1a:19:2b:d6:d1:b8:f2:c7:91:e9:86:a7:2c:40:9f:26:2c:07:
         14:1d:ee:c2
-----BEGIN CERTIFICATE-----
MIIFKDCCA9+gAwIBAgIUGpMMa7VaXDvvy4NI8Nsgf2wPwWYwPgYJKoZIhvcNAQEK
MDGgDTALBglghkgBZQMEAgGhGjAYBgkqhkiG9w0BAQgwCwYJYIZIAWUDBAIBogQC
AgDeMFoxCzAJBgNVBAYTAkRFMRQwEgYDVQQKDAtPU1MgUmVsZWFzZTEUMBIGA1UE
CwwLRGV2ZWxvcG1lbnQxHzAdBgNVBAMMFnRydXN0bWUgQmFja2VuZCBTdWIgQ0Ew
HhcNMjEwNzI5MjAyMzA5WhcNMjQwNzI4MjAyMzA5WjBfMQswCQYDVQQGEwJERTEU
MBIGA1UECgwLT1NTIFJlbGVhc2UxFDASBgNVBAsMC0RldmVsb3BtZW50MSQwIgYD
VQQDDBt0cnVzdG1lIEJhY2tlbmQgQ2VydGlmaWNhdGUwggEgMAsGCSqGSIb3DQEB
CgOCAQ8AMIIBCgKCAQEAsf8sRjWQOKkvopxwM2er+Fb2OlGyYZkEPeqw2PqDB2Y6
tC3hG4jMtcYtTPDwiIhVL++ofR8eIKsmM7K3bR1iqKb6f96VqQlGeyjQ7XTN4Von
k9Cvf17GfLQpgL+0k3yd+Mcbrv69OLmR7yuere6S7vzml4O1MA2VBHkBykBBX6Av
0YCxjA9OAvD7ik8v9lt4RU/IM5Y1R9CvxsZFqFCSWYAtrJaEwUamrjd6QuoNUDPn
Rw6qZT0MTJd7r7pq9DoMtw34m1q1zG3ngSg3Bih+KWfe6isVpB3srkhuedcmOtHp
8TmYubwJfdV1eUaYUYGyIjA9h9SL7Xmu4rW5EigbxwIDAQABo4IBfzCCAXswHQYD
VR0OBBYEFCG/NI8W3JBYdOgb0qeGsFmUeGRoMIGYBgNVHSMEgZAwgY2AFI/RPkr+
2V6c5gCxN84Mm7W8YBrvoV+kXTBbMQswCQYDVQQGEwJERTEUMBIGA1UECgwLT1NT
IFJlbGVhc2UxFDASBgNVBAsMC0RldmVsb3BtZW50MSAwHgYDVQQDDBd0cnVzdG1l
IEdlbmVyYWwgUm9vdCBDQYIUCnrfg1El1uGxBR+lToHvEI0zsy0wDAYDVR0TAQH/
BAIwADAOBgNVHQ8BAf8EBAMCBeAwEwYDVR0lBAwwCgYIKwYBBQUHAwEwXwYIKwYB
BQUHAQEEUzBRMCYGCCsGAQUFBzAChhpodHRwOi8vbG9jYWxob3N0L2R1bW15LmNl
cjAnBggrBgEFBQcwAYYbaHR0cDovL2xvY2FsaG9zdC9kdW1teS1vY3NwMCsGA1Ud
HwQkMCIwIKAeoByGGmh0dHA6Ly9sb2NhbGhvc3QvZHVtbXkuY3JsMD4GCSqGSIb3
DQEBCjAxoA0wCwYJYIZIAWUDBAIBoRowGAYJKoZIhvcNAQEIMAsGCWCGSAFlAwQC
AaIEAgIA3gOCAQEAOOwv7FPPv7oncrDB/PzaZQChbmklfgeuF+KB2axcCpXAHq9J
efwu85a0EzSDNwyn29NNFugMaX1yj6usYPzEKQX/1d0tHQvLlDC/G4kGLydKATsr
7MY1D58UuIz4ywWOFQO7TjOz/UY8tWgt7zHZOo5v0m/f+FgqppUq2vZSFtxdznHD
gKwqUPiDEo+cuWTscAEzNO06MwwG/Tjc8g4ke6c/+bpHc2P5iIexK2Tb5sXiC9+c
ij9yCfDDKM2LOViS5tBDfRxXDz0M0SLGzywNI/rTCd7wk4iL1oNTmei3dg15BSdz
V9s+5e8UGhkr1tG48seR6YanLECfJiwHFB3uwg==
-----END CERTIFICATE-----
Certificate:
    Data:
        Version: 3 (0x2)
        Serial Number:
            0a:7a:df:83:51:25:d6:e1:b1:05:1f:a5:4e:81:ef:10:8d:33:b3:2d
        Signature Algorithm: rsassaPss         
         Hash Algorithm: sha256
         Mask Algorithm: mgf1 with sha256
          Salt Length: 0xDE
         Trailer Field: 0xBC (default)
        Issuer: C=DE, O=OSS Release, OU=Development, CN=trustme General Root CA
        Validity
            Not Before: Jul 29 20:23:09 2021 GMT
            Not After : Jul 28 20:23:09 2027 GMT
        Subject: C=DE, O=OSS Release, OU=Development, CN=trustme Backend Sub CA
        Subject Public Key Info:
            Public Key Algorithm: rsassaPss
                RSA-PSS Public-Key: (2048 bit)
                Modulus:
                    00:b4:86:82:bc:a0:b3:3a:2a:3a:fb:c7:95:75:5e:
                    cb:d4:eb:43:90:0b:cb:d0:a4:d1:c1:1b:96:ee:b1:
                    dc:a9:43:9e:f4:73:d2:15:00:b8:21:0c:49:12:68:
                    a5:95:a0:18:1b:42:05:4f:61:30:4f:91:a5:2b:09:
                    fa:ac:cd:fe:63:69:a0:19:8b:82:db:5b:0f:90:a7:
                    7d:2e:e7:41:b8:58:81:29:9f:5f:74:a2:d6:33:31:
                    7d:ca:8d:25:58:7b:88:3a:27:c6:9d:04:00:5d:ee:
                    b2:0a:67:15:cb:04:23:23:2a:cb:1d:76:37:e7:67:
                    3c:4c:24:4c:52:88:a9:20:c2:b2:a6:4e:68:fa:fe:
                    0e:e3:ea:9b:bb:20:4a:ee:c6:a6:3b:50:d6:51:a2:
                    06:1c:8c:c4:60:32:3e:31:87:ff:ec:2e:68:30:a5:
                    30:82:13:1e:49:f7:86:9d:3a:db:83:26:da:8f:b8:
                    31:5f:5d:ba:5f:29:28:01:92:83:fd:07:c0:30:9e:
                    12:7a:f8:8f:7a:54:db:28:03:e8:d6:07:63:05:86:
                    e6:bc:56:23:e0:73:5f:e4:00:8f:5c:52:5e:7c:d2:
                    62:61:97:e6:1e:83:1b:47:4b:3d:db:eb:7a:00:f5:
                    6d:ac:95:5a:1b:ce:11:d1:9b:23:41:c6:ec:79:d5:
                    8d:fd
                Exponent: 65537 (0x10001)
                No PSS parameter restrictions
        X509v3 extensions:
            X509v3 Subject Key Identifier: 
                8F:D1:3E:4A:FE:D9:5E:9C:E6:00:B1:37:CE:0C:9B:B5:BC:60:1A:EF
            X509v3 Authority Key Identifier: 
                keyid:48:C4:8B:72:4E:94:E3:66:01:FC:9B:58:0B:BF:36:4F:8B:77:60:5C
                DirName:/C=DE/O=OSS Release/OU=Development/CN=trustme General Root CA
                serial:4B:8E:14:B5:AC:F9:55:4E:C9:D6:2E:E1:0A:E5:30:EB:2F:8D:49:3C

            X509v3 Basic Constraints: critical
                CA:TRUE
            X509v3 Key Usage: 
                Digital Signature, Certificate Sign, CRL Sign
            Authority Information Access: 
                CA Issuers - URI:http://localhost/dummy.cer
                OCSP - URI:http://localhost/dummy-ocsp

            X509v3 CRL Distribution Points: 

                Full Name:
                  URI:http://localhost/dummy.crl

    Signature Algorithm: rsassaPss         
         Hash Algorithm: sha256
         Mask Algorithm: mgf1 with sha256
          Salt Length: 0xDE
         Trailer Field: 0xBC (default)

         0f:a7:8a:5b:61:3a:01:71:04:43:7a:19:23:24:db:3a:3c:88:
         3c:48:3a:96:c1:fa:82:e0:ff:30:15:ee:1f:7f:30:90:4c:02:
         b6:9b:aa:2a:21:33:1b:4a:9b:48:5d:72:7e:1a:4a:be:6d:4d:
         c2:d2:f5:cf:90:79:54:f0:f7:3f:cd:1f:95:1f:66:22:e8:42:
         b2:97:86:6a:9a:06:84:ce:7b:62:c6:42:4c:2e:f6:43:83:19:
         82:87:6e:0c:44:90:cd:74:56:32:61:a3:f0:b0:68:2b:ec:ef:
         c4:07:09:ea:f1:b0:51:b8:f8:53:2f:6a:88:53:1d:9c:85:e9:
         43:00:54:d9:10:ff:60:20:db:cd:aa:a5:99:68:ce:ee:d8:26:
         9d:22:a1:02:68:b2:14:17:80:6d:ba:25:04:f7:26:96:80:9c:
         eb:a9:fa:d0:e9:0f:40:48:c1:07:b2:61:fe:7b:29:5e:dd:1f:
         60:e5:4a:10:0f:b5:fb:f8:6f:f2:89:d1:00:7d:f4:89:28:29:
         69:84:e0:9e:b8:24:ce:ff:7e:8c:c9:e8:66:1d:ac:c4:f9:a7:
         5f:41:f9:9d:35:92:2a:55:ac:64:60:da:e3:61:26:b4:66:0b:
         40:3f:c7:75:0b:03:f7:05:b5:12:23:ca:69:33:ff:96:aa:6a:
         64:a7:e3:05
-----BEGIN CERTIFICATE-----
MIIFDzCCA8agAwIBAgIUCnrfg1El1uGxBR+lToHvEI0zsy0wPgYJKoZIhvcNAQEK
MDGgDTALBglghkgBZQMEAgGhGjAYBgkqhkiG9w0BAQgwCwYJYIZIAWUDBAIBogQC
AgDeMFsxCzAJBgNVBAYTAkRFMRQwEgYDVQQKDAtPU1MgUmVsZWFzZTEUMBIGA1UE
CwwLRGV2ZWxvcG1lbnQxIDAeBgNVBAMMF3RydXN0bWUgR2VuZXJhbCBSb290IENB
MB4XDTIxMDcyOTIwMjMwOVoXDTI3MDcyODIwMjMwOVowWjELMAkGA1UEBhMCREUx
FDASBgNVBAoMC09TUyBSZWxlYXNlMRQwEgYDVQQLDAtEZXZlbG9wbWVudDEfMB0G
A1UEAwwWdHJ1c3RtZSBCYWNrZW5kIFN1YiBDQTCCASAwCwYJKoZIhvcNAQEKA4IB
DwAwggEKAoIBAQC0hoK8oLM6Kjr7x5V1XsvU60OQC8vQpNHBG5busdypQ570c9IV
ALghDEkSaKWVoBgbQgVPYTBPkaUrCfqszf5jaaAZi4LbWw+Qp30u50G4WIEpn190
otYzMX3KjSVYe4g6J8adBABd7rIKZxXLBCMjKssddjfnZzxMJExSiKkgwrKmTmj6
/g7j6pu7IEruxqY7UNZRogYcjMRgMj4xh//sLmgwpTCCEx5J94adOtuDJtqPuDFf
XbpfKSgBkoP9B8AwnhJ6+I96VNsoA+jWB2MFhua8ViPgc1/kAI9cUl580mJhl+Ye
gxtHSz3b63oA9W2slVobzhHRmyNBxux51Y39AgMBAAGjggFqMIIBZjAdBgNVHQ4E
FgQUj9E+Sv7ZXpzmALE3zgybtbxgGu8wgZgGA1UdIwSBkDCBjYAUSMSLck6U42YB
/JtYC782T4t3YFyhX6RdMFsxCzAJBgNVBAYTAkRFMRQwEgYDVQQKDAtPU1MgUmVs
ZWFzZTEUMBIGA1UECwwLRGV2ZWxvcG1lbnQxIDAeBgNVBAMMF3RydXN0bWUgR2Vu
ZXJhbCBSb290IENBghRLjhS1rPlVTsnWLuEK5TDrL41JPDAPBgNVHRMBAf8EBTAD
AQH/MAsGA1UdDwQEAwIBhjBfBggrBgEFBQcBAQRTMFEwJgYIKwYBBQUHMAKGGmh0
dHA6Ly9sb2NhbGhvc3QvZHVtbXkuY2VyMCcGCCsGAQUFBzABhhtodHRwOi8vbG9j
YWxob3N0L2R1bW15LW9jc3AwKwYDVR0fBCQwIjAgoB6gHIYaaHR0cDovL2xvY2Fs
aG9zdC9kdW1teS5jcmwwPgYJKoZIhvcNAQEKMDGgDTALBglghkgBZQMEAgGhGjAY
BgkqhkiG9w0BAQgwCwYJYIZIAWUDBAIBogQCAgDeA4IBAQAPp4pbYToBcQRDehkj
JNs6PIg8SDqWwfqC4P8wFe4ffzCQTAK2m6oqITMbSptIXXJ+Gkq+bU3C0vXPkHlU
8Pc/zR+VH2Yi6EKyl4ZqmgaEzntixkJMLvZDgxmCh24MRJDNdFYyYaPwsGgr7O/E
Bwnq8bBRuPhTL2qIUx2chelDAFTZEP9gINvNqqWZaM7u2CadIqECaLIUF4BtuiUE
9yaWgJzrqfrQ6Q9ASMEHsmH+eyle3R9g5UoQD7X7+G/yidEAffSJKClphOCeuCTO
/36MyehmHazE+adfQfmdNZIqVaxkYNrjYSa0ZgtAP8d1CwP3BbUSI8ppM/+Wqmpk
p+MF
-----END CERTIFICATE-----
-----BEGIN CERTIFICATE-----
MIIETTCCAwSgAwIBAgIUS44Utaz5VU7J1i7hCuUw6y+NSTwwPgYJKoZIhvcNAQEK
MDGgDTALBglghkgBZQMEAgGhGjAYBgkqhkiG9w0BAQgwCwYJYIZIAWUDBAIBogQC
AgDeMFsxCzAJBgNVBAYTAkRFMRQwEgYDVQQKDAtPU1MgUmVsZWFzZTEUMBIGA1UE
CwwLRGV2ZWxvcG1lbnQxIDAeBgNVBAMMF3RydXN0bWUgR2VuZXJhbCBSb290IENB
MB4XDTIxMDcyOTIwMjMwOVoXDTMxMDcyNzIwMjMwOVowWzELMAkGA1UEBhMCREUx
FDASBgNVBAoMC09TUyBSZWxlYXNlMRQwEgYDVQQLDAtEZXZlbG9wbWVudDEgMB4G
A1UEAwwXdHJ1c3RtZSBHZW5lcmFsIFJvb3QgQ0EwggEgMAsGCSqGSIb3DQEBCgOC
AQ8AMIIBCgKCAQEAxV3PVqVcysdLhlJDrDq3sCTKbjmhNr8O7HaEmjmNVWWJkoh+
FoAwOLT9MRCmTB6D8n3S2UZV/Il6VFmAOkSEjZQjMFJc56TzCZ1B9blvf/pix9Uf
ObKBkSzFm1PZtd8GswcgZOPLi8Ve3J1ZDluZ+QN2zPh1//Ka/i2ihvvaZquSED62
lJX7XY8dskJ362m5ZGq7PLpapAGx234MIiPJZpojlkQdVtTX4Qv9eVKhcZIDRel0
Kn9vvbJz/387w9vdHeBXGmxn57zbFzJnW2Gr9CikPsYiCpENciRGeMbA2mF02Sdd
4OZJotN2mHtO6xuqiX6+Sh0lRuH80PaGWW4fTwIDAQABo4GoMIGlMB0GA1UdDgQW
BBRIxItyTpTjZgH8m1gLvzZPi3dgXDAPBgNVHRMBAf8EBTADAQH/MA4GA1UdDwEB
/wQEAwIBBjA2BggrBgEFBQcBAQQqMCgwJgYIKwYBBQUHMAKGGmh0dHA6Ly9sb2Nh
bGhvc3QvZHVtbXkuY2VyMCsGA1UdHwQkMCIwIKAeoByGGmh0dHA6Ly9sb2NhbGhv
c3QvZHVtbXkuY3JsMD4GCSqGSIb3DQEBCjAxoA0wCwYJYIZIAWUDBAIBoRowGAYJ
KoZIhvcNAQEIMAsGCWCGSAFlAwQCAaIEAgIA3gOCAQEAl6041G5t/n5FG/v1Ld3h
9Ab+tDsodymDKSM/IyCGIvBUftBxjlZYksPqOl349VsvCUr46+/f4MsJD1ioX/UT
/9xwEQx7IIe+yhlaii0RL0jdWLL+acWnVRWJfZ/EdrUZqiVQpcOqf1+tRcfmx8hN
fzXp5YZCM6I7YJ+9tQfgCQ5gQPdY1Fzx9EGCLfxiVd2NZgGo64jJflcZquFg+T8r
P7qmqc466RYgRwQNUqtSIKFgkdjkQE04s45/9waHMz8sNDVN7Fo/gXORkuCfqBTH
VIxsq1FuO8A7qQpghh+42+vPpgz5+HWIAV7grVgELos80EWOGFGi418wiOrYsB4s
iw==
-----END CERTIFICATE-----
