Certificate:
    Data:
        Version: 3 (0x2)
        Serial Number:
            1a:93:0c:6b:b5:5a:5c:3b:ef:cb:83:48:f0:db:20:7f:6c:0f:c1:67
        Signature Algorithm: rsassaPss         
         Hash Algorithm: sha256
         Mask Algorithm: mgf1 with sha256
          Salt Length: 0xDE
         Trailer Field: 0xBC (default)
        Issuer: C=DE, O=OSS Release, OU=Development, CN=trustme Backend Sub CA
        Validity
            Not Before: Jul 29 20:23:09 2021 GMT
            Not After : Jul 28 20:23:09 2024 GMT
        Subject: C=DE, O=OSS Release, OU=Development, CN=trustme OCSP Server Certificate
        Subject Public Key Info:
            Public Key Algorithm: rsassaPss
                RSA-PSS Public-Key: (2048 bit)
                Modulus:
                    00:d6:c6:f0:87:79:b0:08:9f:05:12:67:75:95:c7:
                    a8:bc:6c:a0:9f:8c:8f:96:24:fd:97:8e:01:4b:ea:
                    8f:30:6a:14:15:1c:c7:8f:c2:cc:e6:0a:f1:0e:d8:
                    93:0c:11:77:aa:89:7f:6f:11:61:f7:59:f8:e9:1d:
                    4f:3d:fd:3f:cf:90:4d:1e:8e:d1:40:41:b8:98:50:
                    73:de:06:24:1f:5d:c2:64:8d:95:4c:58:13:21:78:
                    94:04:85:b1:92:b4:a1:04:c1:12:76:fb:5b:a3:6a:
                    78:e6:28:d5:3c:da:35:9f:04:fc:e5:33:4b:4b:05:
                    c2:ef:39:ed:57:f7:ef:d2:b8:14:02:83:12:19:43:
                    0b:ad:fe:b9:51:fc:5f:db:4f:2d:71:4a:3a:b8:88:
                    7b:64:32:96:2a:ee:5c:c7:16:28:1d:91:3d:81:a6:
                    ad:12:27:d3:ca:25:f8:e9:c8:53:02:4d:4a:67:07:
                    b3:be:55:29:c7:ed:eb:54:6f:bd:40:a2:88:03:f5:
                    5f:25:bb:3d:10:94:67:c2:6d:a8:5a:e6:db:ad:39:
                    00:d5:a6:6a:71:be:2b:f9:66:ed:07:0e:ae:49:de:
                    ae:0a:57:ab:56:d7:23:26:93:62:2b:5e:9a:96:52:
                    23:67:a3:7e:98:f2:16:37:12:c3:89:da:14:8b:98:
                    4b:6d
                Exponent: 65537 (0x10001)
                No PSS parameter restrictions
        X509v3 extensions:
            X509v3 Subject Key Identifier: 
                43:1A:D4:02:EF:C0:06:A9:7E:5B:8E:62:0C:4C:4C:A4:09:CD:01:2A
            X509v3 Authority Key Identifier: 
                keyid:8F:D1:3E:4A:FE:D9:5E:9C:E6:00:B1:37:CE:0C:9B:B5:BC:60:1A:EF
                DirName:/C=DE/O=OSS Release/OU=Development/CN=trustme General Root CA
                serial:0A:7A:DF:83:51:25:D6:E1:B1:05:1F:A5:4E:81:EF:10:8D:33:B3:2D

            X509v3 Basic Constraints: critical
                CA:FALSE
            X509v3 Key Usage: critical
                Digital Signature, Non Repudiation, Key Encipherment
            X509v3 Extended Key Usage: 
                TLS Web Server Authentication
            Authority Information Access: 
                CA Issuers - URI:http://localhost/dummy.cer
                OCSP - URI:http://localhost/dummy-ocsp

            X509v3 CRL Distribution Points: 

                Full Name:
                  URI:http://localhost/dummy.crl

    Signature Algorithm: rsassaPss         
         Hash Algorithm: sha256
         Mask Algorithm: mgf1 with sha256
          Salt Length: 0xDE
         Trailer Field: 0xBC (default)

         16:56:b5:0e:89:98:a0:8c:18:e5:f6:db:e4:bd:5f:a4:69:26:
         52:a1:62:32:90:1e:61:2d:c5:29:81:b2:50:ab:8f:4f:d6:45:
         15:64:0c:77:c2:05:88:b1:76:83:49:0d:94:47:bb:91:12:4b:
         68:f7:40:2d:12:f2:35:85:dc:b9:aa:26:30:c9:05:53:87:d7:
         85:1d:b0:ca:59:3e:9f:81:6c:3f:59:91:f4:1a:d7:98:c2:6d:
         23:ea:55:1a:ab:3f:20:e4:05:0e:1a:0d:4a:ee:53:4b:a0:cd:
         20:1a:36:92:e8:b6:7c:7b:9a:c2:73:a6:67:9d:4c:81:80:dd:
         4f:af:32:3c:41:20:b6:31:52:b8:6d:b8:77:c8:e9:5f:d2:87:
         0c:5c:52:46:1a:ce:a8:76:d3:17:80:32:3d:c7:8a:ad:a7:92:
         bd:c4:b4:e3:3e:10:d0:da:38:fe:25:33:ce:e9:03:d7:b6:30:
         d7:07:55:87:6f:fd:d5:29:7e:20:fd:1d:fb:89:88:1d:00:a3:
         8c:60:d8:68:db:af:4f:b1:5f:ad:20:4c:08:97:82:87:fe:d8:
         28:31:ef:38:5a:55:44:ff:1f:46:ad:97:4c:8c:a6:52:4f:23:
         b8:5e:b3:ec:49:64:ee:b8:78:cf:e4:4a:72:3c:d6:22:b9:2c:
         60:44:be:8f
-----BEGIN CERTIFICATE-----
MIIFLDCCA+OgAwIBAgIUGpMMa7VaXDvvy4NI8Nsgf2wPwWcwPgYJKoZIhvcNAQEK
MDGgDTALBglghkgBZQMEAgGhGjAYBgkqhkiG9w0BAQgwCwYJYIZIAWUDBAIBogQC
AgDeMFoxCzAJBgNVBAYTAkRFMRQwEgYDVQQKDAtPU1MgUmVsZWFzZTEUMBIGA1UE
CwwLRGV2ZWxvcG1lbnQxHzAdBgNVBAMMFnRydXN0bWUgQmFja2VuZCBTdWIgQ0Ew
HhcNMjEwNzI5MjAyMzA5WhcNMjQwNzI4MjAyMzA5WjBjMQswCQYDVQQGEwJERTEU
MBIGA1UECgwLT1NTIFJlbGVhc2UxFDASBgNVBAsMC0RldmVsb3BtZW50MSgwJgYD
VQQDDB90cnVzdG1lIE9DU1AgU2VydmVyIENlcnRpZmljYXRlMIIBIDALBgkqhkiG
9w0BAQoDggEPADCCAQoCggEBANbG8Id5sAifBRJndZXHqLxsoJ+Mj5Yk/ZeOAUvq
jzBqFBUcx4/CzOYK8Q7YkwwRd6qJf28RYfdZ+OkdTz39P8+QTR6O0UBBuJhQc94G
JB9dwmSNlUxYEyF4lASFsZK0oQTBEnb7W6NqeOYo1TzaNZ8E/OUzS0sFwu857Vf3
79K4FAKDEhlDC63+uVH8X9tPLXFKOriIe2QyliruXMcWKB2RPYGmrRIn08ol+OnI
UwJNSmcHs75VKcft61RvvUCiiAP1XyW7PRCUZ8JtqFrm2605ANWmanG+K/lm7QcO
rknergpXq1bXIyaTYitempZSI2ejfpjyFjcSw4naFIuYS20CAwEAAaOCAX8wggF7
MB0GA1UdDgQWBBRDGtQC78AGqX5bjmIMTEykCc0BKjCBmAYDVR0jBIGQMIGNgBSP
0T5K/tlenOYAsTfODJu1vGAa76FfpF0wWzELMAkGA1UEBhMCREUxFDASBgNVBAoM
C09TUyBSZWxlYXNlMRQwEgYDVQQLDAtEZXZlbG9wbWVudDEgMB4GA1UEAwwXdHJ1
c3RtZSBHZW5lcmFsIFJvb3QgQ0GCFAp634NRJdbhsQUfpU6B7xCNM7MtMAwGA1Ud
EwEB/wQCMAAwDgYDVR0PAQH/BAQDAgXgMBMGA1UdJQQMMAoGCCsGAQUFBwMBMF8G
CCsGAQUFBwEBBFMwUTAmBggrBgEFBQcwAoYaaHR0cDovL2xvY2FsaG9zdC9kdW1t
eS5jZXIwJwYIKwYBBQUHMAGGG2h0dHA6Ly9sb2NhbGhvc3QvZHVtbXktb2NzcDAr
BgNVHR8EJDAiMCCgHqAchhpodHRwOi8vbG9jYWxob3N0L2R1bW15LmNybDA+Bgkq
hkiG9w0BAQowMaANMAsGCWCGSAFlAwQCAaEaMBgGCSqGSIb3DQEBCDALBglghkgB
ZQMEAgGiBAICAN4DggEBABZWtQ6JmKCMGOX22+S9X6RpJlKhYjKQHmEtxSmBslCr
j0/WRRVkDHfCBYixdoNJDZRHu5ESS2j3QC0S8jWF3LmqJjDJBVOH14UdsMpZPp+B
bD9ZkfQa15jCbSPqVRqrPyDkBQ4aDUruU0ugzSAaNpLotnx7msJzpmedTIGA3U+v
MjxBILYxUrhtuHfI6V/ShwxcUkYazqh20xeAMj3Hiq2nkr3EtOM+ENDaOP4lM87p
A9e2MNcHVYdv/dUpfiD9HfuJiB0Ao4xg2Gjbr0+xX60gTAiXgof+2Cgx7zhaVUT/
H0atl0yMplJPI7hes+xJZO64eM/kSnI81iK5LGBEvo8=
-----END CERTIFICATE-----
Certificate:
    Data:
        Version: 3 (0x2)
        Serial Number:
            0a:7a:df:83:51:25:d6:e1:b1:05:1f:a5:4e:81:ef:10:8d:33:b3:2d
        Signature Algorithm: rsassaPss         
         Hash Algorithm: sha256
         Mask Algorithm: mgf1 with sha256
          Salt Length: 0xDE
         Trailer Field: 0xBC (default)
        Issuer: C=DE, O=OSS Release, OU=Development, CN=trustme General Root CA
        Validity
            Not Before: Jul 29 20:23:09 2021 GMT
            Not After : Jul 28 20:23:09 2027 GMT
        Subject: C=DE, O=OSS Release, OU=Development, CN=trustme Backend Sub CA
        Subject Public Key Info:
            Public Key Algorithm: rsassaPss
                RSA-PSS Public-Key: (2048 bit)
                Modulus:
                    00:b4:86:82:bc:a0:b3:3a:2a:3a:fb:c7:95:75:5e:
                    cb:d4:eb:43:90:0b:cb:d0:a4:d1:c1:1b:96:ee:b1:
                    dc:a9:43:9e:f4:73:d2:15:00:b8:21:0c:49:12:68:
                    a5:95:a0:18:1b:42:05:4f:61:30:4f:91:a5:2b:09:
                    fa:ac:cd:fe:63:69:a0:19:8b:82:db:5b:0f:90:a7:
                    7d:2e:e7:41:b8:58:81:29:9f:5f:74:a2:d6:33:31:
                    7d:ca:8d:25:58:7b:88:3a:27:c6:9d:04:00:5d:ee:
                    b2:0a:67:15:cb:04:23:23:2a:cb:1d:76:37:e7:67:
                    3c:4c:24:4c:52:88:a9:20:c2:b2:a6:4e:68:fa:fe:
                    0e:e3:ea:9b:bb:20:4a:ee:c6:a6:3b:50:d6:51:a2:
                    06:1c:8c:c4:60:32:3e:31:87:ff:ec:2e:68:30:a5:
                    30:82:13:1e:49:f7:86:9d:3a:db:83:26:da:8f:b8:
                    31:5f:5d:ba:5f:29:28:01:92:83:fd:07:c0:30:9e:
                    12:7a:f8:8f:7a:54:db:28:03:e8:d6:07:63:05:86:
                    e6:bc:56:23:e0:73:5f:e4:00:8f:5c:52:5e:7c:d2:
                    62:61:97:e6:1e:83:1b:47:4b:3d:db:eb:7a:00:f5:
                    6d:ac:95:5a:1b:ce:11:d1:9b:23:41:c6:ec:79:d5:
                    8d:fd
                Exponent: 65537 (0x10001)
                No PSS parameter restrictions
        X509v3 extensions:
            X509v3 Subject Key Identifier: 
                8F:D1:3E:4A:FE:D9:5E:9C:E6:00:B1:37:CE:0C:9B:B5:BC:60:1A:EF
            X509v3 Authority Key Identifier: 
                keyid:48:C4:8B:72:4E:94:E3:66:01:FC:9B:58:0B:BF:36:4F:8B:77:60:5C
                DirName:/C=DE/O=OSS Release/OU=Development/CN=trustme General Root CA
                serial:4B:8E:14:B5:AC:F9:55:4E:C9:D6:2E:E1:0A:E5:30:EB:2F:8D:49:3C

            X509v3 Basic Constraints: critical
                CA:TRUE
            X509v3 Key Usage: 
                Digital Signature, Certificate Sign, CRL Sign
            Authority Information Access: 
                CA Issuers - URI:http://localhost/dummy.cer
                OCSP - URI:http://localhost/dummy-ocsp

            X509v3 CRL Distribution Points: 

                Full Name:
                  URI:http://localhost/dummy.crl

    Signature Algorithm: rsassaPss         
         Hash Algorithm: sha256
         Mask Algorithm: mgf1 with sha256
          Salt Length: 0xDE
         Trailer Field: 0xBC (default)

         0f:a7:8a:5b:61:3a:01:71:04:43:7a:19:23:24:db:3a:3c:88:
         3c:48:3a:96:c1:fa:82:e0:ff:30:15:ee:1f:7f:30:90:4c:02:
         b6:9b:aa:2a:21:33:1b:4a:9b:48:5d:72:7e:1a:4a:be:6d:4d:
         c2:d2:f5:cf:90:79:54:f0:f7:3f:cd:1f:95:1f:66:22:e8:42:
         b2:97:86:6a:9a:06:84:ce:7b:62:c6:42:4c:2e:f6:43:83:19:
         82:87:6e:0c:44:90:cd:74:56:32:61:a3:f0:b0:68:2b:ec:ef:
         c4:07:09:ea:f1:b0:51:b8:f8:53:2f:6a:88:53:1d:9c:85:e9:
         43:00:54:d9:10:ff:60:20:db:cd:aa:a5:99:68:ce:ee:d8:26:
         9d:22:a1:02:68:b2:14:17:80:6d:ba:25:04:f7:26:96:80:9c:
         eb:a9:fa:d0:e9:0f:40:48:c1:07:b2:61:fe:7b:29:5e:dd:1f:
         60:e5:4a:10:0f:b5:fb:f8:6f:f2:89:d1:00:7d:f4:89:28:29:
         69:84:e0:9e:b8:24:ce:ff:7e:8c:c9:e8:66:1d:ac:c4:f9:a7:
         5f:41:f9:9d:35:92:2a:55:ac:64:60:da:e3:61:26:b4:66:0b:
         40:3f:c7:75:0b:03:f7:05:b5:12:23:ca:69:33:ff:96:aa:6a:
         64:a7:e3:05
-----BEGIN CERTIFICATE-----
MIIFDzCCA8agAwIBAgIUCnrfg1El1uGxBR+lToHvEI0zsy0wPgYJKoZIhvcNAQEK
MDGgDTALBglghkgBZQMEAgGhGjAYBgkqhkiG9w0BAQgwCwYJYIZIAWUDBAIBogQC
AgDeMFsxCzAJBgNVBAYTAkRFMRQwEgYDVQQKDAtPU1MgUmVsZWFzZTEUMBIGA1UE
CwwLRGV2ZWxvcG1lbnQxIDAeBgNVBAMMF3RydXN0bWUgR2VuZXJhbCBSb290IENB
MB4XDTIxMDcyOTIwMjMwOVoXDTI3MDcyODIwMjMwOVowWjELMAkGA1UEBhMCREUx
FDASBgNVBAoMC09TUyBSZWxlYXNlMRQwEgYDVQQLDAtEZXZlbG9wbWVudDEfMB0G
A1UEAwwWdHJ1c3RtZSBCYWNrZW5kIFN1YiBDQTCCASAwCwYJKoZIhvcNAQEKA4IB
DwAwggEKAoIBAQC0hoK8oLM6Kjr7x5V1XsvU60OQC8vQpNHBG5busdypQ570c9IV
ALghDEkSaKWVoBgbQgVPYTBPkaUrCfqszf5jaaAZi4LbWw+Qp30u50G4WIEpn190
otYzMX3KjSVYe4g6J8adBABd7rIKZxXLBCMjKssddjfnZzxMJExSiKkgwrKmTmj6
/g7j6pu7IEruxqY7UNZRogYcjMRgMj4xh//sLmgwpTCCEx5J94adOtuDJtqPuDFf
XbpfKSgBkoP9B8AwnhJ6+I96VNsoA+jWB2MFhua8ViPgc1/kAI9cUl580mJhl+Ye
gxtHSz3b63oA9W2slVobzhHRmyNBxux51Y39AgMBAAGjggFqMIIBZjAdBgNVHQ4E
FgQUj9E+Sv7ZXpzmALE3zgybtbxgGu8wgZgGA1UdIwSBkDCBjYAUSMSLck6U42YB
/JtYC782T4t3YFyhX6RdMFsxCzAJBgNVBAYTAkRFMRQwEgYDVQQKDAtPU1MgUmVs
ZWFzZTEUMBIGA1UECwwLRGV2ZWxvcG1lbnQxIDAeBgNVBAMMF3RydXN0bWUgR2Vu
ZXJhbCBSb290IENBghRLjhS1rPlVTsnWLuEK5TDrL41JPDAPBgNVHRMBAf8EBTAD
AQH/MAsGA1UdDwQEAwIBhjBfBggrBgEFBQcBAQRTMFEwJgYIKwYBBQUHMAKGGmh0
dHA6Ly9sb2NhbGhvc3QvZHVtbXkuY2VyMCcGCCsGAQUFBzABhhtodHRwOi8vbG9j
YWxob3N0L2R1bW15LW9jc3AwKwYDVR0fBCQwIjAgoB6gHIYaaHR0cDovL2xvY2Fs
aG9zdC9kdW1teS5jcmwwPgYJKoZIhvcNAQEKMDGgDTALBglghkgBZQMEAgGhGjAY
BgkqhkiG9w0BAQgwCwYJYIZIAWUDBAIBogQCAgDeA4IBAQAPp4pbYToBcQRDehkj
JNs6PIg8SDqWwfqC4P8wFe4ffzCQTAK2m6oqITMbSptIXXJ+Gkq+bU3C0vXPkHlU
8Pc/zR+VH2Yi6EKyl4ZqmgaEzntixkJMLvZDgxmCh24MRJDNdFYyYaPwsGgr7O/E
Bwnq8bBRuPhTL2qIUx2chelDAFTZEP9gINvNqqWZaM7u2CadIqECaLIUF4BtuiUE
9yaWgJzrqfrQ6Q9ASMEHsmH+eyle3R9g5UoQD7X7+G/yidEAffSJKClphOCeuCTO
/36MyehmHazE+adfQfmdNZIqVaxkYNrjYSa0ZgtAP8d1CwP3BbUSI8ppM/+Wqmpk
p+MF
-----END CERTIFICATE-----
-----BEGIN CERTIFICATE-----
MIIETTCCAwSgAwIBAgIUS44Utaz5VU7J1i7hCuUw6y+NSTwwPgYJKoZIhvcNAQEK
MDGgDTALBglghkgBZQMEAgGhGjAYBgkqhkiG9w0BAQgwCwYJYIZIAWUDBAIBogQC
AgDeMFsxCzAJBgNVBAYTAkRFMRQwEgYDVQQKDAtPU1MgUmVsZWFzZTEUMBIGA1UE
CwwLRGV2ZWxvcG1lbnQxIDAeBgNVBAMMF3RydXN0bWUgR2VuZXJhbCBSb290IENB
MB4XDTIxMDcyOTIwMjMwOVoXDTMxMDcyNzIwMjMwOVowWzELMAkGA1UEBhMCREUx
FDASBgNVBAoMC09TUyBSZWxlYXNlMRQwEgYDVQQLDAtEZXZlbG9wbWVudDEgMB4G
A1UEAwwXdHJ1c3RtZSBHZW5lcmFsIFJvb3QgQ0EwggEgMAsGCSqGSIb3DQEBCgOC
AQ8AMIIBCgKCAQEAxV3PVqVcysdLhlJDrDq3sCTKbjmhNr8O7HaEmjmNVWWJkoh+
FoAwOLT9MRCmTB6D8n3S2UZV/Il6VFmAOkSEjZQjMFJc56TzCZ1B9blvf/pix9Uf
ObKBkSzFm1PZtd8GswcgZOPLi8Ve3J1ZDluZ+QN2zPh1//Ka/i2ihvvaZquSED62
lJX7XY8dskJ362m5ZGq7PLpapAGx234MIiPJZpojlkQdVtTX4Qv9eVKhcZIDRel0
Kn9vvbJz/387w9vdHeBXGmxn57zbFzJnW2Gr9CikPsYiCpENciRGeMbA2mF02Sdd
4OZJotN2mHtO6xuqiX6+Sh0lRuH80PaGWW4fTwIDAQABo4GoMIGlMB0GA1UdDgQW
BBRIxItyTpTjZgH8m1gLvzZPi3dgXDAPBgNVHRMBAf8EBTADAQH/MA4GA1UdDwEB
/wQEAwIBBjA2BggrBgEFBQcBAQQqMCgwJgYIKwYBBQUHMAKGGmh0dHA6Ly9sb2Nh
bGhvc3QvZHVtbXkuY2VyMCsGA1UdHwQkMCIwIKAeoByGGmh0dHA6Ly9sb2NhbGhv
c3QvZHVtbXkuY3JsMD4GCSqGSIb3DQEBCjAxoA0wCwYJYIZIAWUDBAIBoRowGAYJ
KoZIhvcNAQEIMAsGCWCGSAFlAwQCAaIEAgIA3gOCAQEAl6041G5t/n5FG/v1Ld3h
9Ab+tDsodymDKSM/IyCGIvBUftBxjlZYksPqOl349VsvCUr46+/f4MsJD1ioX/UT
/9xwEQx7IIe+yhlaii0RL0jdWLL+acWnVRWJfZ/EdrUZqiVQpcOqf1+tRcfmx8hN
fzXp5YZCM6I7YJ+9tQfgCQ5gQPdY1Fzx9EGCLfxiVd2NZgGo64jJflcZquFg+T8r
P7qmqc466RYgRwQNUqtSIKFgkdjkQE04s45/9waHMz8sNDVN7Fo/gXORkuCfqBTH
VIxsq1FuO8A7qQpghh+42+vPpgz5+HWIAV7grVgELos80EWOGFGi418wiOrYsB4s
iw==
-----END CERTIFICATE-----
