Certificate:
    Data:
        Version: 3 (0x2)
        Serial Number:
            7b:e3:e6:1f:47:d0:5e:08:af:b6:7b:e7:4c:7b:00:9d:31:ca:78:7c
        Signature Algorithm: rsassaPss         
         Hash Algorithm: sha256
         Mask Algorithm: mgf1 with sha256
          Salt Length: 0x01DE
         Trailer Field: 0xBC (default)
        Issuer: C=DE, O=OSS Release, OU=Development, CN=trustme Software Signing Root CA
        Validity
            Not Before: Aug  2 09:04:22 2021 GMT
            Not After : Aug  1 09:04:22 2027 GMT
        Subject: C=DE, O=OSS Release, OU=Development, CN=trustme Software Signing Sub CA
        Subject Public Key Info:
            Public Key Algorithm: rsassaPss
                RSA-PSS Public-Key: (4096 bit)
                Modulus:
                    00:d7:25:00:70:d8:7b:79:5d:7e:ca:5b:15:2e:c5:
                    ae:ea:92:e1:35:0c:72:62:c1:59:c9:ad:62:52:e6:
                    2d:2e:84:fb:7e:03:f1:23:f6:3f:96:71:d0:27:9a:
                    85:90:12:be:65:ed:27:57:e3:49:40:40:05:85:4a:
                    8e:cb:58:0c:6c:17:83:c6:c4:41:15:c4:5a:87:11:
                    ad:9a:58:94:05:c7:00:19:29:ee:80:43:df:9d:44:
                    2f:95:d4:6d:bf:33:65:7a:f9:fb:84:af:c8:ea:a6:
                    0e:3e:ad:84:87:09:b8:b0:3f:8b:5c:39:ea:bf:14:
                    65:c8:61:0b:18:c6:47:32:3f:13:71:35:85:b7:51:
                    f4:3f:6d:4d:17:08:ce:81:dc:68:d6:04:ea:31:d0:
                    0b:e9:1d:34:d4:86:9d:9a:92:f6:46:00:f5:31:05:
                    02:9c:e8:99:a7:2b:31:e8:2d:26:1f:41:4b:2c:28:
                    f8:d4:11:3e:ad:3f:b7:e1:35:72:17:1a:cd:45:21:
                    11:f3:87:6a:0f:e0:3c:f8:de:71:04:26:95:4d:25:
                    a5:ae:a3:2d:76:3e:9b:c3:ab:71:94:86:28:90:46:
                    a4:3e:24:2b:aa:0c:02:96:a8:81:12:f6:bf:0f:5a:
                    3f:1c:e4:4a:05:99:2c:ff:be:ff:fb:f5:06:f4:27:
                    44:ad:e3:c6:2c:d6:6e:a9:19:fe:aa:86:21:73:52:
                    06:b9:46:21:49:b4:85:0d:70:61:85:85:a7:cf:58:
                    fc:c8:80:3f:63:c7:0e:68:db:e6:7c:d2:21:2d:0d:
                    96:76:dc:4f:62:41:02:e9:9c:32:8f:26:6c:a4:8b:
                    be:a4:93:90:27:a8:4a:16:48:a3:38:8c:1f:16:b4:
                    fa:81:ff:7d:f9:7a:cf:d4:0b:1c:9e:e0:5f:7c:73:
                    38:e5:5f:26:e2:42:88:e3:1c:9f:0f:e1:94:16:ec:
                    12:ad:c9:b0:c6:26:e4:04:63:1b:13:1b:53:4d:8f:
                    8b:bf:4d:d9:96:ef:f8:87:d0:9f:09:5f:2d:be:e4:
                    ae:d5:bb:07:3c:c7:59:8d:06:9a:a9:93:b7:68:a8:
                    01:a0:74:f3:52:b0:72:ee:7a:c9:62:5e:98:be:af:
                    9e:ad:b5:21:ec:d1:12:7e:a5:ec:1b:ee:1a:f4:d3:
                    e8:3a:f7:cb:18:44:04:af:a2:57:ce:a2:f1:9c:18:
                    71:19:c5:93:a6:68:6c:03:35:36:66:98:50:95:fc:
                    31:f3:65:d0:e9:1c:b1:67:a7:f2:8a:ef:54:30:46:
                    5f:13:e9:6a:01:94:6b:64:e4:10:40:7c:17:79:f2:
                    9d:c3:10:87:80:af:c8:3e:90:66:7c:44:27:c6:ad:
                    a7:f9:11
                Exponent: 65537 (0x10001)
                No PSS parameter restrictions
        X509v3 extensions:
            X509v3 Subject Key Identifier: 
                30:E3:94:DE:81:D8:A5:44:6F:BA:96:19:4C:D8:DD:67:B1:B1:6B:E2
            X509v3 Authority Key Identifier: 
                keyid:AF:90:21:BA:36:07:07:5A:67:88:D3:67:ED:E0:3E:24:D2:4F:40:15
                DirName:/C=DE/O=OSS Release/OU=Development/CN=trustme Software Signing Root CA
                serial:1F:1A:4E:AF:C0:36:5A:16:87:10:15:21:5C:BF:F7:EE:C5:29:8A:4A

            X509v3 Basic Constraints: critical
                CA:TRUE
            X509v3 Key Usage: critical
                Certificate Sign, CRL Sign
            Authority Information Access: 
                CA Issuers - URI:http://localhost/ssig-dummy.cer
                OCSP - URI:http://localhost/ssig-dummy-ocsp

            X509v3 CRL Distribution Points: 

                Full Name:
                  URI:http://localhost/ssig-dummy.crl

    Signature Algorithm: rsassaPss         
         Hash Algorithm: sha256
         Mask Algorithm: mgf1 with sha256
          Salt Length: 0x01DE
         Trailer Field: 0xBC (default)

         2f:a0:64:23:52:18:c6:3a:75:c5:10:6b:94:5b:91:75:60:37:
         df:76:82:93:d8:ea:f6:13:94:94:66:be:48:84:b0:13:8b:a8:
         d9:00:66:b8:1a:af:2d:82:a3:db:f9:08:a6:69:24:a2:bf:c3:
         d7:2b:79:d1:13:04:c0:33:05:4a:ee:87:86:49:f0:01:e3:f0:
         b4:a2:46:ab:d1:91:a3:4b:fc:b1:08:d8:e0:5a:51:bb:6a:1c:
         be:7f:a4:58:2e:fd:46:4a:75:f0:f1:ee:9f:c4:cd:57:d4:c4:
         7f:f5:57:42:7c:ef:2c:82:42:da:8d:f7:8c:16:0b:e8:50:b5:
         60:24:cd:0d:86:2e:a7:64:1f:3c:87:1a:d4:2d:d8:5c:eb:33:
         f6:3d:1d:2e:97:78:aa:cb:33:49:fd:17:6b:5c:f8:17:60:3d:
         3f:a2:c5:62:8a:0f:c3:f1:15:de:44:77:dc:36:00:7e:be:dd:
         a2:9b:b7:54:f5:b6:eb:46:99:42:c7:b3:c7:3a:e3:bc:04:6b:
         fc:f4:b1:c1:28:a4:03:00:40:11:ab:6b:60:d3:bd:8a:85:65:
         a7:33:cd:65:46:71:13:88:8c:47:2a:61:f8:f2:ba:6f:68:93:
         88:e5:3f:95:60:97:59:8b:4a:ed:9f:de:75:3c:6e:d9:56:7b:
         f7:e6:d9:48:89:a1:2f:4e:ee:08:2f:4b:aa:48:22:fa:85:92:
         a9:74:fe:a1:98:18:4d:ce:ff:fb:39:87:d2:99:66:5b:8d:aa:
         66:62:c8:77:97:64:cb:a1:e1:49:07:e4:89:c4:b6:a5:f7:e4:
         1b:ac:64:3a:1c:a2:52:ba:ba:9c:72:7a:bd:8b:1b:5a:f9:e4:
         47:7d:a9:17:56:ec:83:3c:c0:58:ca:b8:54:00:6b:88:cb:bf:
         b0:dd:60:72:08:22:0f:36:a5:89:f8:b2:13:61:6f:0e:2f:45:
         b6:aa:04:42:f3:13:af:30:ae:6d:6b:96:f8:10:27:07:4c:e4:
         c6:a8:44:a9:be:1b:73:3e:01:22:1a:71:74:1c:d8:03:0d:c5:
         3c:3b:33:e3:8c:06:44:c4:73:4f:27:7f:0a:f1:6d:e3:9c:63:
         e8:ae:71:dc:ab:5b:61:35:02:ad:5c:2f:b1:1a:01:b4:14:c0:
         70:66:a8:bb:20:29:99:a6:6c:7b:23:0b:af:be:d7:d3:27:49:
         99:82:3a:41:93:99:00:3d:07:92:90:7e:79:8e:3e:1d:02:fd:
         62:c8:bd:ed:11:e3:ef:4b:23:a5:2c:65:60:0c:7a:c2:82:cc:
         11:31:9e:0f:1e:3c:5e:b7:6a:16:e1:30:3b:ef:0e:7b:bf:2c:
         e3:25:24:22:3b:b1:4e:d7
-----BEGIN CERTIFICATE-----
MIIHPDCCBPOgAwIBAgIUe+PmH0fQXgivtnvnTHsAnTHKeHwwPgYJKoZIhvcNAQEK
MDGgDTALBglghkgBZQMEAgGhGjAYBgkqhkiG9w0BAQgwCwYJYIZIAWUDBAIBogQC
AgHeMGQxCzAJBgNVBAYTAkRFMRQwEgYDVQQKDAtPU1MgUmVsZWFzZTEUMBIGA1UE
CwwLRGV2ZWxvcG1lbnQxKTAnBgNVBAMMIHRydXN0bWUgU29mdHdhcmUgU2lnbmlu
ZyBSb290IENBMB4XDTIxMDgwMjA5MDQyMloXDTI3MDgwMTA5MDQyMlowYzELMAkG
A1UEBhMCREUxFDASBgNVBAoMC09TUyBSZWxlYXNlMRQwEgYDVQQLDAtEZXZlbG9w
bWVudDEoMCYGA1UEAwwfdHJ1c3RtZSBTb2Z0d2FyZSBTaWduaW5nIFN1YiBDQTCC
AiAwCwYJKoZIhvcNAQEKA4ICDwAwggIKAoICAQDXJQBw2Ht5XX7KWxUuxa7qkuE1
DHJiwVnJrWJS5i0uhPt+A/Ej9j+WcdAnmoWQEr5l7SdX40lAQAWFSo7LWAxsF4PG
xEEVxFqHEa2aWJQFxwAZKe6AQ9+dRC+V1G2/M2V6+fuEr8jqpg4+rYSHCbiwP4tc
Oeq/FGXIYQsYxkcyPxNxNYW3UfQ/bU0XCM6B3GjWBOox0AvpHTTUhp2akvZGAPUx
BQKc6JmnKzHoLSYfQUssKPjUET6tP7fhNXIXGs1FIRHzh2oP4Dz43nEEJpVNJaWu
oy12PpvDq3GUhiiQRqQ+JCuqDAKWqIES9r8PWj8c5EoFmSz/vv/79Qb0J0St48Ys
1m6pGf6qhiFzUga5RiFJtIUNcGGFhafPWPzIgD9jxw5o2+Z80iEtDZZ23E9iQQLp
nDKPJmyki76kk5AnqEoWSKM4jB8WtPqB/335es/UCxye4F98czjlXybiQojjHJ8P
4ZQW7BKtybDGJuQEYxsTG1NNj4u/TdmW7/iH0J8JXy2+5K7Vuwc8x1mNBpqpk7do
qAGgdPNSsHLuesliXpi+r56ttSHs0RJ+pewb7hr00+g698sYRASvolfOovGcGHEZ
xZOmaGwDNTZmmFCV/DHzZdDpHLFnp/KK71QwRl8T6WoBlGtk5BBAfBd58p3DEIeA
r8g+kGZ8RCfGraf5EQIDAQABo4IBhTCCAYEwHQYDVR0OBBYEFDDjlN6B2KVEb7qW
GUzY3WexsWviMIGhBgNVHSMEgZkwgZaAFK+QIbo2BwdaZ4jTZ+3gPiTST0AVoWik
ZjBkMQswCQYDVQQGEwJERTEUMBIGA1UECgwLT1NTIFJlbGVhc2UxFDASBgNVBAsM
C0RldmVsb3BtZW50MSkwJwYDVQQDDCB0cnVzdG1lIFNvZnR3YXJlIFNpZ25pbmcg
Um9vdCBDQYIUHxpOr8A2WhaHEBUhXL/37sUpikowDwYDVR0TAQH/BAUwAwEB/zAO
BgNVHQ8BAf8EBAMCAQYwaQYIKwYBBQUHAQEEXTBbMCsGCCsGAQUFBzAChh9odHRw
Oi8vbG9jYWxob3N0L3NzaWctZHVtbXkuY2VyMCwGCCsGAQUFBzABhiBodHRwOi8v
bG9jYWxob3N0L3NzaWctZHVtbXktb2NzcDAwBgNVHR8EKTAnMCWgI6Ahhh9odHRw
Oi8vbG9jYWxob3N0L3NzaWctZHVtbXkuY3JsMD4GCSqGSIb3DQEBCjAxoA0wCwYJ
YIZIAWUDBAIBoRowGAYJKoZIhvcNAQEIMAsGCWCGSAFlAwQCAaIEAgIB3gOCAgEA
L6BkI1IYxjp1xRBrlFuRdWA333aCk9jq9hOUlGa+SISwE4uo2QBmuBqvLYKj2/kI
pmkkor/D1yt50RMEwDMFSu6HhknwAePwtKJGq9GRo0v8sQjY4FpRu2ocvn+kWC79
Rkp18PHun8TNV9TEf/VXQnzvLIJC2o33jBYL6FC1YCTNDYYup2QfPIca1C3YXOsz
9j0dLpd4qsszSf0Xa1z4F2A9P6LFYooPw/EV3kR33DYAfr7dopu3VPW260aZQsez
xzrjvARr/PSxwSikAwBAEatrYNO9ioVlpzPNZUZxE4iMRyph+PK6b2iTiOU/lWCX
WYtK7Z/edTxu2VZ79+bZSImhL07uCC9Lqkgi+oWSqXT+oZgYTc7/+zmH0plmW42q
ZmLId5dky6HhSQfkicS2pffkG6xkOhyiUrq6nHJ6vYsbWvnkR32pF1bsgzzAWMq4
VABriMu/sN1gcggiDzalifiyE2FvDi9FtqoEQvMTrzCubWuW+BAnB0zkxqhEqb4b
cz4BIhpxdBzYAw3FPDsz44wGRMRzTyd/CvFt45xj6K5x3KtbYTUCrVwvsRoBtBTA
cGaouyApmaZseyMLr77X0ydJmYI6QZOZAD0HkpB+eY4+HQL9Ysi97RHj70sjpSxl
YAx6woLMETGeDx48XrdqFuEwO+8Oe78s4yUkIjuxTtc=
-----END CERTIFICATE-----
-----BEGIN CERTIFICATE-----
MIIGaTCCBCCgAwIBAgIUHxpOr8A2WhaHEBUhXL/37sUpikowPgYJKoZIhvcNAQEK
MDGgDTALBglghkgBZQMEAgGhGjAYBgkqhkiG9w0BAQgwCwYJYIZIAWUDBAIBogQC
AgHeMGQxCzAJBgNVBAYTAkRFMRQwEgYDVQQKDAtPU1MgUmVsZWFzZTEUMBIGA1UE
CwwLRGV2ZWxvcG1lbnQxKTAnBgNVBAMMIHRydXN0bWUgU29mdHdhcmUgU2lnbmlu
ZyBSb290IENBMB4XDTIxMDgwMjA5MDQyMVoXDTMxMDczMTA5MDQyMVowZDELMAkG
A1UEBhMCREUxFDASBgNVBAoMC09TUyBSZWxlYXNlMRQwEgYDVQQLDAtEZXZlbG9w
bWVudDEpMCcGA1UEAwwgdHJ1c3RtZSBTb2Z0d2FyZSBTaWduaW5nIFJvb3QgQ0Ew
ggIgMAsGCSqGSIb3DQEBCgOCAg8AMIICCgKCAgEA61HUn82JFhlm3Qz1QTWO1Zqn
fbpP38kFwbi0ig5TGCrGFRa9IcepGUFSU4rta4FMqXHIxAMmdTLGLsN/Th7lEDlD
0Z4CAcUNn/3CKsHtpmk5Uf5qKPiJhC5QSskOfI9Nyx4FTOsPwsmnc39ZXPng2a1c
I3Iu3U3kiqhIvElI84r3S+Fc+17fUq/MooSylpzS2Et6jBz5SPEQlMqtKngexfMN
Dbi3FSZkxzYwRJQYRooPcykSgm1Ywt2/ACiIwKN1hpjXYb7sWOPV78JgBRqJ3D7V
QNuB1Wdna5GjxVftL3rIFQKStdX3WssItcRI1FrJO9XP4aqPuftM7IRMm2qCAJGG
PBmm1ij3zBnHgcbg1dJqjt+9vtRk6Eqvz7tfZdGDDkvodKlh/Rza/XGbWcSQzBNo
Ebk7vjRHYpJhiakK4ozCwObifd4NBTj4HpZ4tAtqNDWdfrLnqTEhhyqOYgF7DoUk
+LwMkadL+r+2gcJ0rvhnkSTM6OaPMQRDFuNabPQD3CYEgR8VeyfzKMwalkFS2Dan
m8hDn/+PIXV+QiojfeFEOVDnI6VGZvA6CuBxKo/+hOh6Y9dfZEyCzbEy89n8S10d
naFTlwCKA7M/xv1Aub/+ao0dOTP9RmLb9p2KGqwuwEbd5Ad6cScdyhM2AK1xRsci
PD40US7tqRfiDQtl3W0CAwEAAaOBsjCBrzAdBgNVHQ4EFgQUr5AhujYHB1pniNNn
7eA+JNJPQBUwDwYDVR0TAQH/BAUwAwEB/zAOBgNVHQ8BAf8EBAMCAQYwOwYIKwYB
BQUHAQEELzAtMCsGCCsGAQUFBzAChh9odHRwOi8vbG9jYWxob3N0L3NzaWctZHVt
bXkuY2VyMDAGA1UdHwQpMCcwJaAjoCGGH2h0dHA6Ly9sb2NhbGhvc3Qvc3NpZy1k
dW1teS5jcmwwPgYJKoZIhvcNAQEKMDGgDTALBglghkgBZQMEAgGhGjAYBgkqhkiG
9w0BAQgwCwYJYIZIAWUDBAIBogQCAgHeA4ICAQCZO3/dzPfVqMafJslf7pSgb6c/
wgC48UenYlUiyQUJtnWDwphUlyX46sAsKZALx/5N2o9P01SP0D0nTVEHhAxKgAak
VLKFUfMaKJLezlkmo99WRDEjc8DP0jmPdLSyyy0NnjNp9FQ20o1NSo8jt1zY6Chy
9BRAg3I+ppKKoJSAScReD3X3mlt8bjqJkoHNxRCnDM+ERw49BrxIpSwikaK+kePW
HYgVTDmsBrbsjAEJFSqLWt91Ma4MqMuGwiHkX9dWFMDIb8PixgMGZ57UXcNEF4uL
sPG5zrMVLtNuFBd1fOzqEr3/f5QLB6rsoi7rlMGi8HnQO8BrPKWT/6yKrxFzUMHg
0AkhHc8yr5xcDfYmRrlQs2IYHCO3nAwWcwIvfdr9DanzXBLbe55AmH2HDU+CGYvq
k+RwJ6ZCK0Zo9uKElc/KdvLIOm69pU5k9f2zAwdPC87wDYXeTo7c8PlAlqeWclLw
5GNtxCtZdMKUEgeunqArEIDxvDZwM0Juf6UJGBI7lzuMqjVFwOlm6mVT7+Zogo/Y
EFKc03W3lRhIaruJ8UaOKwY3mbg84IwhDcJvnJb3TUHu8tA3kJvtoGn39UqsX1gV
+CIKZPDbNeeOV0yHCdpoztiBz59KwAyMI9zU0xCG0Dt0VPHzFEers7YM5fxlnWcD
JiB9i7elYTG8QaUzpA==
-----END CERTIFICATE-----
