Certificate:
    Data:
        Version: 3 (0x2)
        Serial Number:
            7b:60:5c:4b:44:5d:30:48:52:85:7d:94:9f:b9:5a:32:36:ef:59:9f
        Signature Algorithm: rsassaPss         
         Hash Algorithm: sha256
         Mask Algorithm: mgf1 with sha256
          Salt Length: 0x01DE
         Trailer Field: 0xBC (default)
        Issuer: C=DE, O=OSS Release, OU=Development, CN=trustme General Root CA
        Validity
            Not Before: Aug  2 09:04:29 2021 GMT
            Not After : Aug  1 09:04:29 2027 GMT
        Subject: C=DE, O=OSS Release, OU=Development, CN=trustme User Sub CA
        Subject Public Key Info:
            Public Key Algorithm: rsassaPss
                RSA-PSS Public-Key: (4096 bit)
                Modulus:
                    00:c1:39:1c:75:3d:6a:cb:57:a8:73:46:96:25:bc:
                    79:c5:3c:7b:ac:ec:69:41:7b:65:40:67:d8:1c:0e:
                    0a:63:c5:be:e4:58:d8:0f:0d:e2:4a:c5:f7:76:f1:
                    e2:40:7d:63:7a:16:1f:44:76:65:db:67:27:39:d9:
                    08:75:84:86:d8:71:bd:44:0b:75:48:9a:5e:8b:57:
                    fe:86:db:93:ce:76:62:f8:bd:cc:21:c7:54:29:c5:
                    e9:ec:04:27:f8:10:f2:4f:a1:a8:5f:e0:c5:08:4d:
                    c2:bc:06:aa:cc:48:5e:53:ad:32:3b:99:e8:34:f1:
                    e0:5f:56:ec:21:63:b8:2d:8f:4a:8e:09:9b:86:95:
                    c4:e7:3f:25:e3:fd:1d:68:36:2b:03:a3:62:eb:28:
                    d1:af:2e:a3:72:62:cc:e6:cd:9e:6c:d0:a0:0a:41:
                    16:2c:b3:5b:07:2b:73:36:cf:a4:ed:50:9e:6e:06:
                    f9:c3:0b:b1:65:86:1d:e9:b2:60:ea:44:7c:fa:aa:
                    73:56:14:51:2b:19:ef:e8:a7:0e:60:7a:c1:35:68:
                    71:46:b1:36:bb:31:22:7d:dd:89:08:32:c5:37:fc:
                    80:13:90:51:b6:d5:ab:fb:6c:96:e6:ed:4d:85:5b:
                    90:59:d8:79:30:8f:a0:12:38:8d:7f:6c:cf:de:24:
                    b7:de:63:8e:20:82:1c:ea:0c:d8:fc:30:65:d5:8e:
                    a6:80:b5:bf:86:05:31:06:39:32:56:d5:ad:99:04:
                    85:70:ce:de:74:31:93:fd:54:ab:0d:2e:3d:50:95:
                    1e:80:f3:51:d6:4a:de:3b:82:f3:d9:a5:86:74:d6:
                    9d:92:13:c5:c5:e1:86:f0:9d:02:73:d2:78:cc:e9:
                    de:10:11:6d:ac:f4:b5:85:8b:b2:46:c7:1b:f9:12:
                    98:a0:73:0d:9e:3c:53:ee:1d:89:90:38:11:3c:a7:
                    b4:f9:ca:b5:04:5f:4d:e7:b4:1e:e5:da:08:b6:73:
                    e2:1c:b4:64:38:17:54:9f:7c:42:98:49:63:9b:af:
                    15:6c:4e:54:55:5d:87:85:42:33:1f:81:06:f6:20:
                    2d:a3:0a:0e:45:8e:58:da:c1:d7:07:f3:f8:08:07:
                    6b:07:f5:11:89:5a:ec:bc:eb:a4:4f:a7:72:e2:88:
                    fd:e1:27:87:b1:2c:c6:d2:a7:f5:a5:68:0b:48:bd:
                    7b:ac:51:f6:d9:24:f9:14:89:b4:dc:bf:06:b7:20:
                    93:8e:22:74:52:a7:37:4c:aa:0f:02:29:02:e7:49:
                    65:4b:6a:48:1d:65:e7:9e:53:ee:d0:3b:73:50:09:
                    d2:7d:3b:7d:61:3e:88:2c:e4:f5:df:8f:8d:b8:6e:
                    de:12:33
                Exponent: 65537 (0x10001)
                No PSS parameter restrictions
        X509v3 extensions:
            X509v3 Subject Key Identifier: 
                33:B0:7F:72:21:E0:50:74:D8:1B:48:F6:89:9F:B4:F6:33:CC:53:2F
            X509v3 Authority Key Identifier: 
                keyid:E1:4C:73:6B:7D:60:B1:34:AA:69:A8:CB:34:E7:2D:65:3F:83:61:80
                DirName:/C=DE/O=OSS Release/OU=Development/CN=trustme General Root CA
                serial:38:11:F5:F0:3F:8A:82:BA:3D:FE:A0:66:CF:D5:76:78:C5:3F:0D:AA

            X509v3 Basic Constraints: critical
                CA:TRUE
            X509v3 Key Usage: 
                Digital Signature, Certificate Sign, CRL Sign
            Authority Information Access: 
                CA Issuers - URI:http://localhost/dummy.cer
                OCSP - URI:http://localhost/dummy-ocsp

            X509v3 CRL Distribution Points: 

                Full Name:
                  URI:http://localhost/dummy.crl

    Signature Algorithm: rsassaPss         
         Hash Algorithm: sha256
         Mask Algorithm: mgf1 with sha256
          Salt Length: 0x01DE
         Trailer Field: 0xBC (default)

         4a:9d:c8:32:6c:06:08:ab:21:0e:1b:08:4f:cf:15:56:91:db:
         ca:89:bd:39:82:8d:b8:58:07:eb:77:3e:cc:61:eb:e7:8f:18:
         6d:a3:db:1b:6c:3b:75:97:27:c3:ea:05:f5:ae:44:8b:fe:32:
         fa:bd:c2:d8:98:9f:82:d8:18:5d:1c:8e:7a:ce:63:93:7f:1f:
         ed:92:5e:b5:80:84:f6:e4:58:2f:9a:53:8e:c4:9c:cc:ec:47:
         26:cd:7e:d7:f3:68:93:3e:b5:ca:e0:77:a8:c5:04:c4:71:47:
         64:79:3e:76:e6:06:bc:d1:b1:8c:68:e8:4f:be:f7:45:96:0a:
         92:d9:b8:89:18:2d:e5:6f:6a:b7:0c:f6:05:72:54:cd:56:e2:
         ae:73:71:15:d9:2e:29:8e:54:e7:79:6f:07:99:03:64:fd:5b:
         c7:41:91:55:f6:02:80:76:69:35:1b:6a:4b:1d:d6:6a:99:a4:
         8b:a4:07:82:78:6b:ae:c5:bd:c7:f7:9b:70:8d:21:e9:a7:a2:
         ff:95:ad:12:a8:e7:03:93:fd:ec:d1:51:0b:a5:25:98:62:0e:
         be:07:f1:12:fc:04:46:2b:62:da:05:3f:a7:f0:31:39:1e:96:
         ea:df:e0:58:f5:9b:bb:dd:02:e1:1b:c8:3a:22:d4:f3:21:fa:
         05:01:a3:cf:0d:29:8b:1b:92:fa:19:6c:a8:f4:6c:3c:7e:a7:
         31:b1:43:de:4e:9d:a7:3e:21:70:e0:a8:69:1e:a0:85:d6:ba:
         90:eb:fa:10:e5:27:84:1d:c6:0d:22:29:96:f8:e8:c9:22:91:
         8a:bb:f3:c2:b1:83:0c:9a:ee:1e:2c:b0:aa:85:82:f4:8e:7a:
         45:65:c6:fc:f6:fc:83:12:01:c1:0c:b0:d3:06:39:c6:12:73:
         2f:8b:5d:a7:02:0e:d0:c7:58:72:2a:f8:a7:9d:86:87:f9:94:
         8c:23:a9:1f:d3:28:56:ca:47:38:5f:25:9e:05:16:56:ba:90:
         5c:40:bd:d7:bb:52:6f:fa:78:71:cd:ba:f6:eb:cf:4f:28:97:
         59:78:12:a0:c4:b9:16:1d:1f:b2:54:9f:d6:36:9c:5b:7a:06:
         79:ac:25:e5:a9:fc:4e:eb:d2:c7:9a:fa:5b:4a:86:7b:3e:1a:
         e7:59:47:04:c2:c3:ee:25:2f:fe:4e:76:ec:d3:aa:a4:29:e2:
         a8:4d:05:15:fe:5f:46:5c:e5:2b:6c:ae:10:25:38:6f:f7:d7:
         a1:da:af:21:84:2d:dd:86:13:91:f5:dc:9f:bc:77:46:b9:78:
         f6:a8:0d:0f:6d:56:49:b2:a7:8b:57:d8:cd:8a:86:47:d5:2a:
         21:3f:a8:76:c9:ec:fb:f0
-----BEGIN CERTIFICATE-----
MIIHDDCCBMOgAwIBAgIUe2BcS0RdMEhShX2Un7laMjbvWZ8wPgYJKoZIhvcNAQEK
MDGgDTALBglghkgBZQMEAgGhGjAYBgkqhkiG9w0BAQgwCwYJYIZIAWUDBAIBogQC
AgHeMFsxCzAJBgNVBAYTAkRFMRQwEgYDVQQKDAtPU1MgUmVsZWFzZTEUMBIGA1UE
CwwLRGV2ZWxvcG1lbnQxIDAeBgNVBAMMF3RydXN0bWUgR2VuZXJhbCBSb290IENB
MB4XDTIxMDgwMjA5MDQyOVoXDTI3MDgwMTA5MDQyOVowVzELMAkGA1UEBhMCREUx
FDASBgNVBAoMC09TUyBSZWxlYXNlMRQwEgYDVQQLDAtEZXZlbG9wbWVudDEcMBoG
A1UEAwwTdHJ1c3RtZSBVc2VyIFN1YiBDQTCCAiAwCwYJKoZIhvcNAQEKA4ICDwAw
ggIKAoICAQDBORx1PWrLV6hzRpYlvHnFPHus7GlBe2VAZ9gcDgpjxb7kWNgPDeJK
xfd28eJAfWN6Fh9EdmXbZyc52Qh1hIbYcb1EC3VIml6LV/6G25POdmL4vcwhx1Qp
xensBCf4EPJPoahf4MUITcK8BqrMSF5TrTI7meg08eBfVuwhY7gtj0qOCZuGlcTn
PyXj/R1oNisDo2LrKNGvLqNyYszmzZ5s0KAKQRYss1sHK3M2z6TtUJ5uBvnDC7Fl
hh3psmDqRHz6qnNWFFErGe/opw5gesE1aHFGsTa7MSJ93YkIMsU3/IATkFG21av7
bJbm7U2FW5BZ2Hkwj6ASOI1/bM/eJLfeY44gghzqDNj8MGXVjqaAtb+GBTEGOTJW
1a2ZBIVwzt50MZP9VKsNLj1QlR6A81HWSt47gvPZpYZ01p2SE8XF4YbwnQJz0njM
6d4QEW2s9LWFi7JGxxv5Epigcw2ePFPuHYmQOBE8p7T5yrUEX03ntB7l2gi2c+Ic
tGQ4F1SffEKYSWObrxVsTlRVXYeFQjMfgQb2IC2jCg5FjljawdcH8/gIB2sH9RGJ
Wuy866RPp3LiiP3hJ4exLMbSp/WlaAtIvXusUfbZJPkUibTcvwa3IJOOInRSpzdM
qg8CKQLnSWVLakgdZeeeU+7QO3NQCdJ9O31hPogs5PXfj424bt4SMwIDAQABo4IB
ajCCAWYwHQYDVR0OBBYEFDOwf3Ih4FB02BtI9omftPYzzFMvMIGYBgNVHSMEgZAw
gY2AFOFMc2t9YLE0qmmoyzTnLWU/g2GAoV+kXTBbMQswCQYDVQQGEwJERTEUMBIG
A1UECgwLT1NTIFJlbGVhc2UxFDASBgNVBAsMC0RldmVsb3BtZW50MSAwHgYDVQQD
DBd0cnVzdG1lIEdlbmVyYWwgUm9vdCBDQYIUOBH18D+Kgro9/qBmz9V2eMU/Daow
DwYDVR0TAQH/BAUwAwEB/zALBgNVHQ8EBAMCAYYwXwYIKwYBBQUHAQEEUzBRMCYG
CCsGAQUFBzAChhpodHRwOi8vbG9jYWxob3N0L2R1bW15LmNlcjAnBggrBgEFBQcw
AYYbaHR0cDovL2xvY2FsaG9zdC9kdW1teS1vY3NwMCsGA1UdHwQkMCIwIKAeoByG
Gmh0dHA6Ly9sb2NhbGhvc3QvZHVtbXkuY3JsMD4GCSqGSIb3DQEBCjAxoA0wCwYJ
YIZIAWUDBAIBoRowGAYJKoZIhvcNAQEIMAsGCWCGSAFlAwQCAaIEAgIB3gOCAgEA
Sp3IMmwGCKshDhsIT88VVpHbyom9OYKNuFgH63c+zGHr548YbaPbG2w7dZcnw+oF
9a5Ei/4y+r3C2JifgtgYXRyOes5jk38f7ZJetYCE9uRYL5pTjsSczOxHJs1+1/No
kz61yuB3qMUExHFHZHk+duYGvNGxjGjoT773RZYKktm4iRgt5W9qtwz2BXJUzVbi
rnNxFdkuKY5U53lvB5kDZP1bx0GRVfYCgHZpNRtqSx3Wapmki6QHgnhrrsW9x/eb
cI0h6aei/5WtEqjnA5P97NFRC6UlmGIOvgfxEvwERiti2gU/p/AxOR6W6t/gWPWb
u90C4RvIOiLU8yH6BQGjzw0pixuS+hlsqPRsPH6nMbFD3k6dpz4hcOCoaR6ghda6
kOv6EOUnhB3GDSIplvjoySKRirvzwrGDDJruHiywqoWC9I56RWXG/Pb8gxIBwQyw
0wY5xhJzL4tdpwIO0MdYcir4p52Gh/mUjCOpH9MoVspHOF8lngUWVrqQXEC917tS
b/p4cc269uvPTyiXWXgSoMS5Fh0fslSf1jacW3oGeawl5an8TuvSx5r6W0qGez4a
51lHBMLD7iUv/k527NOqpCniqE0FFf5fRlzlK2yuECU4b/fXodqvIYQt3YYTkfXc
n7x3Rrl49qgND21WSbKni1fYzYqGR9UqIT+odsns+/A=
-----END CERTIFICATE-----
-----BEGIN CERTIFICATE-----
MIIGTTCCBASgAwIBAgIUOBH18D+Kgro9/qBmz9V2eMU/DaowPgYJKoZIhvcNAQEK
MDGgDTALBglghkgBZQMEAgGhGjAYBgkqhkiG9w0BAQgwCwYJYIZIAWUDBAIBogQC
AgHeMFsxCzAJBgNVBAYTAkRFMRQwEgYDVQQKDAtPU1MgUmVsZWFzZTEUMBIGA1UE
CwwLRGV2ZWxvcG1lbnQxIDAeBgNVBAMMF3RydXN0bWUgR2VuZXJhbCBSb290IENB
MB4XDTIxMDgwMjA5MDQyN1oXDTMxMDczMTA5MDQyN1owWzELMAkGA1UEBhMCREUx
FDASBgNVBAoMC09TUyBSZWxlYXNlMRQwEgYDVQQLDAtEZXZlbG9wbWVudDEgMB4G
A1UEAwwXdHJ1c3RtZSBHZW5lcmFsIFJvb3QgQ0EwggIgMAsGCSqGSIb3DQEBCgOC
Ag8AMIICCgKCAgEAwsxD4vuobKuo87QE7TBMrIhvMmSmGM37E+bVcEtAzT7DnAX8
dNJG9lDKR9enPY7qAXloCR8SombhNAhFpIJqFAvYv6ASot9uz5Ft1ScEPnN7RxCy
pe/s0yR/yach11njx9tvTtg0Uwe4hS+Syk8u9mMBqmnXgTMamABePOuP9rwj6fyr
5cnuG3nB7m8AmAGX/PbQbEw0eN+9w5X1fyzKQno3MVOxqSbt9glTaDkyqX3ddJGE
bOzIyyG9RqWokye5Lhef4wu0pVreFbPVDwsA4bisbEeHbytCCJTFtdTvjVodkybZ
2ngd7zk2VEJnQaAavvKWFsK1krmejS5JAFoEa7Q5EW8T/miID6EgWUgrvSQzX5cE
Qj5s/3HsNAfFIQG4UGjbQg0FrJV8yVB1/5aUiacXpivztzADCU8MtzUu6H2L0nx5
B+7dP/CjdRFPUpVEwYBdFj0XxuT8Q0AEtP8WtIqHmTIoz/asGbaBbYrfe07JU8eQ
MU5v1j+bM3wnJrmxltWphPF8kX5JrfkskX9jCvuPvzUmQqQkI7eIddxp97rbtVxi
b0RKBNuuP/8CdJF7ga6FxFUj2gMy8MQsDxRGtsmZzzzSEnsxC3vlaAQ8HkwBCIh8
CDzZn6yOrq5OV0tGAHfP9XHDeIKLzltGzuUv5aZFTZ3uscoX6S8lcRvzLNsCAwEA
AaOBqDCBpTAdBgNVHQ4EFgQU4Uxza31gsTSqaajLNOctZT+DYYAwDwYDVR0TAQH/
BAUwAwEB/zAOBgNVHQ8BAf8EBAMCAQYwNgYIKwYBBQUHAQEEKjAoMCYGCCsGAQUF
BzAChhpodHRwOi8vbG9jYWxob3N0L2R1bW15LmNlcjArBgNVHR8EJDAiMCCgHqAc
hhpodHRwOi8vbG9jYWxob3N0L2R1bW15LmNybDA+BgkqhkiG9w0BAQowMaANMAsG
CWCGSAFlAwQCAaEaMBgGCSqGSIb3DQEBCDALBglghkgBZQMEAgGiBAICAd4DggIB
AGi2QWEpVtzvVCtsowja2shfV+wEVZIa9bnQO+1YhcFVeg5sXEpXrAw41i+5OJ7E
831+dkoMOfJYevenVQ5NMJh8fr9Qv1ofo2Xw4fVurys9RlQYtRY8d8qW37FBsP0V
+6fMJ0t9pe6TeN749NAvx0Pp3s48rBObKDAkh764EtUFKuLje+1rbdUJkZHvR7sY
mBgKith92QPr+bK60cfxdn1meV6fmN/xElLgEQ5DdFfsQUc5WMGXX0FGnJlyAWfN
AkWFsOfjkMCHr6T0Zh6As2f+2GqI5gy53JppLsbR5yS3Ppr2NK+SDbbDhColh2u+
leS1hXzYqG92SvVBvQxQxn4g0S6shAVbpgRFW8OBB5u0qb6pemZH6CO2ImiXiDN/
HnGPq5xVJO/HcbZIsgplBT0NSeANGwCY5L2vB85YHTxPr00D0zqj0lSU7tTQT2J6
o9fSfB9ePLLe76q0YE/9Z4nHMYc3DyqUvuBkeerRYqlvKBc63gZUEdyoaYNG+aqR
RZFeaXfLFfM6DQumzO6YSGmp0YKqeAXzdTLN5A4NUTDo908IhnsBYR7qWe8yE9LW
X6R9/WIGiYY9QrSej62NsT6GFb9Ojvu8fkw7pt1/NfTeGctCg3vv4SRogT2uvX2v
Gv1Z4Gu3MjYLDD/7u/pODrWVtmBRVXgbZkpvySZsC50p
-----END CERTIFICATE-----
