Certificate:
    Data:
        Version: 3 (0x2)
        Serial Number:
            5f:f4:09:c9:6f:cc:62:f2:13:34:65:eb:2f:ac:b9:cc:84:67:89:2a
        Signature Algorithm: sha256WithRSAEncryption
        Issuer: C=DE, O=OSS Release, OU=Development, CN=trustme General Root CA
        Validity
            Not Before: Aug  3 19:13:46 2021 GMT
            Not After : Aug  2 19:13:46 2027 GMT
        Subject: C=DE, O=OSS Release, OU=Development, CN=trustme User Sub CA
        Subject Public Key Info:
            Public Key Algorithm: rsassaPss
                RSA-PSS Public-Key: (4096 bit)
                Modulus:
                    00:da:3d:58:08:a0:1e:b8:3c:cd:73:ed:c0:72:f5:
                    7a:3a:52:09:8b:8b:fa:91:d9:1b:66:56:35:58:94:
                    98:ba:71:5e:78:18:29:a2:19:91:37:48:24:3f:34:
                    4e:6d:32:73:d8:12:5f:6e:11:3f:6f:6f:1c:58:59:
                    3e:7f:c2:30:49:bf:cd:59:e2:f8:b5:14:15:b5:25:
                    e7:36:c0:e7:4d:a1:45:6e:64:6b:c4:d4:fe:2e:2e:
                    f7:7a:b4:f8:0a:c7:9b:6d:20:45:20:59:43:d7:74:
                    10:b2:54:8b:0b:fb:f0:44:5d:93:d3:24:82:23:28:
                    b6:ec:a4:45:4d:bb:5d:62:45:3b:4c:5c:de:c5:6d:
                    37:d3:6f:27:8c:12:44:ae:6a:d3:1d:0c:98:5a:d7:
                    d1:07:e8:06:e7:0d:5e:27:8f:09:40:f8:52:20:db:
                    2d:5f:5e:99:6f:35:4c:44:3a:cc:fb:8c:e2:2b:dd:
                    ac:eb:03:93:0c:88:fe:90:1e:bb:84:76:c4:06:ee:
                    ad:97:eb:31:23:44:00:bf:34:8a:6f:f3:e6:ed:46:
                    ed:b6:66:72:f3:d0:3d:0b:fd:68:a2:e7:fb:ab:fc:
                    0d:e7:c6:d9:06:30:3e:06:cc:cf:08:30:b7:0b:c5:
                    ac:60:4f:01:ce:ce:a8:9f:ba:ed:c0:1d:f0:76:3f:
                    f1:d1:25:6e:69:e1:aa:ee:53:1e:43:59:28:bd:37:
                    07:6a:79:d8:f4:56:6b:00:0f:36:18:6f:05:4a:e5:
                    76:b5:ca:cc:fc:0b:cd:55:33:5c:e9:7b:6d:c5:d8:
                    56:6f:55:49:b7:74:92:7b:59:a1:46:08:ca:0b:10:
                    41:7d:e9:7d:fa:db:77:a1:9c:1a:08:ce:b5:51:d7:
                    fb:fb:e4:fa:3f:75:29:fb:9b:bd:5b:bc:2d:08:c7:
                    b0:fd:a8:86:a0:8f:0e:8d:bd:4c:34:47:e2:2e:59:
                    28:98:a9:6e:44:63:a5:fe:e4:97:75:30:12:6d:c5:
                    9f:f7:61:b0:f5:d1:3c:93:4c:32:a2:f6:ce:11:56:
                    ec:32:21:ec:a2:1c:ca:65:95:fa:ea:24:52:37:e9:
                    e0:b9:16:9e:e9:65:96:14:0c:6f:fd:9e:4c:d0:7b:
                    87:18:b4:63:f4:21:1b:d2:67:41:b0:48:79:7b:90:
                    e0:5e:36:35:9f:e4:d7:95:93:ff:ff:89:01:fc:ca:
                    af:5f:9a:ec:ef:95:f1:51:5c:07:f3:41:a0:98:a0:
                    51:fd:2a:91:f1:64:5b:1c:a5:b5:f3:12:5e:d6:da:
                    d7:10:8a:57:02:d2:68:d3:6e:8a:9b:ec:96:c2:9c:
                    0f:05:df:6b:58:27:fb:5f:dc:f9:70:ea:a2:b6:bd:
                    7f:5d:a3
                Exponent: 65537 (0x10001)
                No PSS parameter restrictions
        X509v3 extensions:
            X509v3 Subject Key Identifier: 
                8B:38:49:E8:71:7E:A9:EB:11:88:2A:B4:4F:A1:F1:E9:F6:FB:97:17
            X509v3 Authority Key Identifier: 
                keyid:90:25:EF:45:12:EC:45:97:8D:F7:C5:C1:F3:A5:15:40:9F:56:2B:48
                DirName:/C=DE/O=OSS Release/OU=Development/CN=trustme General Root CA
                serial:34:18:EA:09:43:F4:C1:F5:33:8E:CD:33:BE:9B:81:B8:6E:AB:93:A5

            X509v3 Basic Constraints: critical
                CA:TRUE
            X509v3 Key Usage: 
                Digital Signature, Certificate Sign, CRL Sign
            Authority Information Access: 
                CA Issuers - URI:http://localhost/dummy.cer
                OCSP - URI:http://localhost/dummy-ocsp

            X509v3 CRL Distribution Points: 

                Full Name:
                  URI:http://localhost/dummy.crl

    Signature Algorithm: sha256WithRSAEncryption
         8f:5f:51:38:58:92:1d:40:bf:a0:1f:95:2a:ed:93:4c:af:b6:
         3f:49:03:f3:58:24:11:e6:9f:b5:05:42:98:1d:96:31:0c:32:
         e9:e1:71:98:69:05:93:a0:c3:01:21:1d:43:d3:2c:dd:55:ca:
         c1:a8:15:cc:96:fe:2b:49:d1:9c:45:ea:38:5a:3a:6b:e7:50:
         d2:4e:d5:db:16:7e:7f:ea:f8:9c:7d:87:68:c9:27:da:b1:03:
         80:27:c4:a8:e9:c1:36:d9:ea:61:e7:eb:bd:74:22:b5:9e:e4:
         af:66:f8:bb:b9:01:59:b3:63:3a:3c:0e:87:72:cb:aa:e8:37:
         f5:87:8d:57:a9:06:9d:cf:95:2b:dc:48:90:86:2d:e0:90:fd:
         71:95:ba:17:c1:3b:7c:1d:3c:5f:97:22:91:2d:0d:ca:d1:58:
         ab:6f:a7:88:a1:50:17:13:1c:d7:18:ee:ad:fe:b8:fc:93:8f:
         a5:84:c4:3e:a6:91:03:eb:00:f3:22:d3:fe:69:d2:51:4f:1e:
         69:07:e4:6f:59:c6:2d:ce:e9:2f:f1:e5:a2:68:75:5c:ca:25:
         8c:cd:ba:a3:63:56:ae:4a:8e:41:77:5f:10:d0:20:9e:cd:aa:
         4e:6d:1a:be:f9:70:94:4b:a9:82:0e:a0:f8:cd:0e:0b:22:3e:
         00:5f:10:9a:8e:89:00:f1:45:50:a9:e8:02:34:d5:17:fc:92:
         e7:e5:1e:72:da:81:8b:7a:61:88:9d:0e:0f:1d:1d:37:52:52:
         40:71:39:91:42:0c:27:9d:42:3c:a6:3a:13:df:77:0f:f8:f1:
         96:3a:e6:85:bb:2a:ba:12:fd:c9:43:54:dd:ee:9c:72:bd:40:
         99:10:da:d4:4e:a8:f2:8f:e3:f4:19:aa:64:8e:e2:03:6e:13:
         84:89:b4:62:d0:38:9c:ee:b4:63:d1:75:bf:ce:67:7d:1f:5c:
         a9:d8:0f:07:6c:3e:9f:75:6c:1e:7a:4d:83:be:12:81:6b:36:
         91:55:68:b9:e3:16:8e:bc:eb:c6:db:a7:a4:8a:ed:b2:a5:8f:
         2a:da:17:65:54:f6:fe:28:9c:11:f2:3b:d2:5e:8e:10:64:c9:
         1b:1f:1f:31:0e:4a:00:48:54:c9:24:0a:84:87:ff:7d:e0:98:
         41:2b:63:cf:98:74:93:ed:5c:e4:11:34:a5:0e:be:64:3a:78:
         78:fe:5b:3a:72:4c:c9:57:c5:7e:46:45:ca:ed:6d:54:16:b5:
         41:b4:2a:f9:e4:80:80:e1:f6:91:71:ea:9a:f3:5c:d7:7d:f9:
         cf:47:7b:60:62:2f:5e:16:53:1b:a3:5f:f7:83:65:b9:63:7b:
         f5:33:43:2e:11:91:29:90
-----BEGIN CERTIFICATE-----
MIIGqjCCBJKgAwIBAgIUX/QJyW/MYvITNGXrL6y5zIRniSowDQYJKoZIhvcNAQEL
BQAwWzELMAkGA1UEBhMCREUxFDASBgNVBAoMC09TUyBSZWxlYXNlMRQwEgYDVQQL
DAtEZXZlbG9wbWVudDEgMB4GA1UEAwwXdHJ1c3RtZSBHZW5lcmFsIFJvb3QgQ0Ew
HhcNMjEwODAzMTkxMzQ2WhcNMjcwODAyMTkxMzQ2WjBXMQswCQYDVQQGEwJERTEU
MBIGA1UECgwLT1NTIFJlbGVhc2UxFDASBgNVBAsMC0RldmVsb3BtZW50MRwwGgYD
VQQDDBN0cnVzdG1lIFVzZXIgU3ViIENBMIICIDALBgkqhkiG9w0BAQoDggIPADCC
AgoCggIBANo9WAigHrg8zXPtwHL1ejpSCYuL+pHZG2ZWNViUmLpxXngYKaIZkTdI
JD80Tm0yc9gSX24RP29vHFhZPn/CMEm/zVni+LUUFbUl5zbA502hRW5ka8TU/i4u
93q0+ArHm20gRSBZQ9d0ELJUiwv78ERdk9MkgiMotuykRU27XWJFO0xc3sVtN9Nv
J4wSRK5q0x0MmFrX0QfoBucNXiePCUD4UiDbLV9emW81TEQ6zPuM4ivdrOsDkwyI
/pAeu4R2xAburZfrMSNEAL80im/z5u1G7bZmcvPQPQv9aKLn+6v8DefG2QYwPgbM
zwgwtwvFrGBPAc7OqJ+67cAd8HY/8dElbmnhqu5THkNZKL03B2p52PRWawAPNhhv
BUrldrXKzPwLzVUzXOl7bcXYVm9VSbd0kntZoUYIygsQQX3pffrbd6GcGgjOtVHX
+/vk+j91KfubvVu8LQjHsP2ohqCPDo29TDRH4i5ZKJipbkRjpf7kl3UwEm3Fn/dh
sPXRPJNMMqL2zhFW7DIh7KIcymWV+uokUjfp4LkWnulllhQMb/2eTNB7hxi0Y/Qh
G9JnQbBIeXuQ4F42NZ/k15WT//+JAfzKr1+a7O+V8VFcB/NBoJigUf0qkfFkWxyl
tfMSXtba1xCKVwLSaNNuipvslsKcDwXfa1gn+1/c+XDqora9f12jAgMBAAGjggFq
MIIBZjAdBgNVHQ4EFgQUizhJ6HF+qesRiCq0T6Hx6fb7lxcwgZgGA1UdIwSBkDCB
jYAUkCXvRRLsRZeN98XB86UVQJ9WK0ihX6RdMFsxCzAJBgNVBAYTAkRFMRQwEgYD
VQQKDAtPU1MgUmVsZWFzZTEUMBIGA1UECwwLRGV2ZWxvcG1lbnQxIDAeBgNVBAMM
F3RydXN0bWUgR2VuZXJhbCBSb290IENBghQ0GOoJQ/TB9TOOzTO+m4G4bquTpTAP
BgNVHRMBAf8EBTADAQH/MAsGA1UdDwQEAwIBhjBfBggrBgEFBQcBAQRTMFEwJgYI
KwYBBQUHMAKGGmh0dHA6Ly9sb2NhbGhvc3QvZHVtbXkuY2VyMCcGCCsGAQUFBzAB
hhtodHRwOi8vbG9jYWxob3N0L2R1bW15LW9jc3AwKwYDVR0fBCQwIjAgoB6gHIYa
aHR0cDovL2xvY2FsaG9zdC9kdW1teS5jcmwwDQYJKoZIhvcNAQELBQADggIBAI9f
UThYkh1Av6AflSrtk0yvtj9JA/NYJBHmn7UFQpgdljEMMunhcZhpBZOgwwEhHUPT
LN1VysGoFcyW/itJ0ZxF6jhaOmvnUNJO1dsWfn/q+Jx9h2jJJ9qxA4AnxKjpwTbZ
6mHn6710IrWe5K9m+Lu5AVmzYzo8Dodyy6roN/WHjVepBp3PlSvcSJCGLeCQ/XGV
uhfBO3wdPF+XIpEtDcrRWKtvp4ihUBcTHNcY7q3+uPyTj6WExD6mkQPrAPMi0/5p
0lFPHmkH5G9Zxi3O6S/x5aJodVzKJYzNuqNjVq5KjkF3XxDQIJ7Nqk5tGr75cJRL
qYIOoPjNDgsiPgBfEJqOiQDxRVCp6AI01Rf8kuflHnLagYt6YYidDg8dHTdSUkBx
OZFCDCedQjymOhPfdw/48ZY65oW7KroS/clDVN3unHK9QJkQ2tROqPKP4/QZqmSO
4gNuE4SJtGLQOJzutGPRdb/OZ30fXKnYDwdsPp91bB56TYO+EoFrNpFVaLnjFo68
68bbp6SK7bKljyraF2VU9v4onBHyO9JejhBkyRsfHzEOSgBIVMkkCoSH/33gmEEr
Y8+YdJPtXOQRNKUOvmQ6eHj+WzpyTMlXxX5GRcrtbVQWtUG0KvnkgIDh9pFx6prz
XNd9+c9He2BiL14WUxujX/eDZblje/UzQy4RkSmQ
-----END CERTIFICATE-----
-----BEGIN CERTIFICATE-----
MIIF7TCCA9WgAwIBAgIUNBjqCUP0wfUzjs0zvpuBuG6rk6UwDQYJKoZIhvcNAQEL
BQAwWzELMAkGA1UEBhMCREUxFDASBgNVBAoMC09TUyBSZWxlYXNlMRQwEgYDVQQL
DAtEZXZlbG9wbWVudDEgMB4GA1UEAwwXdHJ1c3RtZSBHZW5lcmFsIFJvb3QgQ0Ew
HhcNMjEwODAzMTkxMzQ1WhcNMzEwODAxMTkxMzQ1WjBbMQswCQYDVQQGEwJERTEU
MBIGA1UECgwLT1NTIFJlbGVhc2UxFDASBgNVBAsMC0RldmVsb3BtZW50MSAwHgYD
VQQDDBd0cnVzdG1lIEdlbmVyYWwgUm9vdCBDQTCCAiIwDQYJKoZIhvcNAQEBBQAD
ggIPADCCAgoCggIBALLtpGjZYmIlFgIC8fKt77eXhM4MJhS6aWoULX8UYRc+VsFP
5AsGjj/R1nnRJQjyfK+VIACYDqivHtnlVpJiXNiWfzCE3OkBPoqM07yJCMzQHtx6
ISmONbzyzQqjWroui/hQ6oydXQ84zzWfzCVxjegdXVYeYY4bj9M5xBTLngkmEn8X
WW++QHesxa0n7Pqy0UzV0Bo+P1XRR66UH2rD/VNGedXIRiBX52fXOjetIzuYYDrb
FOjUte3JTpIqHbMqoJJuG/0P7KueUutgBlUvLO64ERsnmmzW5xDNynRDqRDyGk6T
m3YK/F1v7BSfJBDF1FR10sNPa2NvUih/Lgf/R2xeFr8mFLU6He3gUgS1GU56Qr1f
xStyz3YPWdo20vzZs3zt6DszH5W00m1V+xjm7szKZdR2pA63RCkDhdJ4LS93QhCE
nJu6U5eg5e55TbDH1Y+bAfB3qR96L1Ekm03+ppZN+2YDwV4mYZQKIpl3xtzPRrck
ecv5Q6j2TSjzdopFNQ8r96rXhjXlw4ZuAdYVQvsz6jiyLogWgdP8E3ebDlSf14it
Y8dlsM2momBCmW497aMbfNAAjtz3XLhcICfkTbN3mQ4E/xPZD0edjsD8W9NQ9ssH
5nkkpuzSOjYTQ8hh11FMnze7TeiWA51xA4tv19hcIOgXRTtUBfL7A3MNcetDAgMB
AAGjgagwgaUwHQYDVR0OBBYEFJAl70US7EWXjffFwfOlFUCfVitIMA8GA1UdEwEB
/wQFMAMBAf8wDgYDVR0PAQH/BAQDAgEGMDYGCCsGAQUFBwEBBCowKDAmBggrBgEF
BQcwAoYaaHR0cDovL2xvY2FsaG9zdC9kdW1teS5jZXIwKwYDVR0fBCQwIjAgoB6g
HIYaaHR0cDovL2xvY2FsaG9zdC9kdW1teS5jcmwwDQYJKoZIhvcNAQELBQADggIB
AE8qlfp79U+ys/sCIC21t6mmww5Gz7VEaAqojUKs3ADo33mtwB+7AIF1v6auE/gJ
mbM8gSVZ8FxpwkhRlc3tISVoNht8GyVAamasvFEBBCnP5vO0pUDudk5bKV+Zjk6X
PcQ3V1HrzEfyR6zrx2S0cTyAODi0eogZZn7sM/s8Oc/6ca3EJDCX6uR1ejwLWZ/w
VdUR2EfLKKsqrq7wMdZNQDcwA9LFKCpqQHvcI2jADUalq/IOFRJ/t/6JmIFY2jNk
rt3LD3aXP8OreD7QV+UriN8pWDZj73EhsK4N6sc6eUOnQvjUcxGDnb/YeIpemj9+
S28lE5QC9GUy7H8pP6jtqJq7IKdgaFwZTpqYEBLVYYC8xA7kWvJfltU2D1JQpW7U
soX1fJW2vT6pXMulOSmd1zns5Gf7wUmhgY63IJ9ycpwamjj0vdEVrL9syvTspmLn
eOYmtSSoyh3KHsNNZ/fDdnEMdreLb1xkD+Pery3NOEES6l2XZB+ySQ5Z53PjUSns
y5Tq7Vjv/xjOPjG29ZfZRUhrxObWXAmapiuvYgoZSKLMNbKSNQ5qbjJeMgQowluV
SCxnEdPIplxUuQqXBECak8I8lmHXtw8/k+6EHAgjsTsW+dnV+WY7u5I5NhrxWpIa
qQScxJQOnpGNr3T8k4aZoyZk8uzuKjX5nLpLXQyVrHsA
-----END CERTIFICATE-----
