Certificate:
    Data:
        Version: 3 (0x2)
        Serial Number:
            34:d8:f6:3f:df:16:1e:e3:6b:a5:6f:3d:01:63:5c:e2:bd:87:b3:5a
        Signature Algorithm: sha256WithRSAEncryption
        Issuer: C=DE, O=OSS Release, OU=Development, CN=trustme General Root CA
        Validity
            Not Before: Nov 19 15:59:18 2021 GMT
            Not After : Nov 18 15:59:18 2027 GMT
        Subject: C=DE, O=OSS Release, OU=Development, CN=trustme User Sub CA
        Subject Public Key Info:
            Public Key Algorithm: rsassaPss
                RSA-PSS Public-Key: (4096 bit)
                Modulus:
                    00:c2:aa:e3:8e:70:14:69:da:a8:95:b8:60:89:71:
                    ed:b1:ac:c9:77:5b:c4:ae:c8:22:62:19:9d:ec:4c:
                    7f:b9:0e:1d:12:68:96:80:d3:35:20:4b:da:f3:1f:
                    45:ab:46:a5:4e:a6:70:90:3b:f8:04:e3:b5:32:6a:
                    a3:06:d2:5c:5a:62:50:2b:81:e5:12:49:56:17:d8:
                    13:35:c0:df:67:ee:88:21:61:b4:3c:b4:64:85:1c:
                    28:54:54:6f:e6:b5:4e:69:1f:b1:be:c4:78:4d:aa:
                    88:52:af:84:69:64:b6:27:20:92:ff:cc:72:53:ec:
                    18:06:9b:45:58:36:5a:0c:aa:1d:e9:dd:b9:66:be:
                    77:92:88:79:c2:b1:19:db:8b:37:ac:79:40:d7:5c:
                    4b:4a:ea:b5:1c:bd:d0:92:fe:ab:60:d8:08:03:b4:
                    d4:e8:68:39:1b:d9:7b:48:f5:59:ab:33:f4:01:d6:
                    b1:82:d4:cd:95:15:60:16:6f:14:e5:6e:9f:3e:2a:
                    10:ae:1b:01:cd:00:b7:cd:48:27:e9:a5:45:4a:62:
                    e2:ad:8d:3e:3a:46:a7:43:45:b8:45:31:f9:7d:26:
                    85:23:6e:f0:03:bc:f5:e7:67:c9:c3:5d:d5:18:4d:
                    f8:b3:34:e9:3a:24:ce:0d:3a:12:91:2d:e7:e8:31:
                    29:6b:8b:1d:04:d2:0b:4a:27:d3:0d:3b:51:88:fd:
                    de:cf:53:d8:d1:71:2f:ee:f9:c7:b4:d7:f3:0c:5d:
                    65:54:23:9b:82:0a:ff:9a:22:56:79:2d:16:a1:f6:
                    24:a1:85:26:5c:ff:62:16:70:f7:e7:ab:2e:f6:2a:
                    83:b7:6d:35:c6:60:ef:0a:63:ff:13:54:6f:fa:47:
                    8e:c0:48:ad:ea:2f:03:bc:d1:fd:7f:14:8a:65:9a:
                    4e:40:da:fe:f4:d7:a9:23:64:8e:9e:74:37:29:4e:
                    ea:3a:ae:d6:36:56:d3:55:a5:33:cd:97:1e:d3:f4:
                    7c:c9:6c:75:5f:c7:8e:cd:26:44:35:8a:7b:60:08:
                    73:e4:55:72:fc:b8:28:2a:5e:69:7a:e2:ac:86:1c:
                    07:14:2b:8c:d8:98:f7:a3:83:16:ff:1c:2f:89:62:
                    c1:e4:01:c9:94:b3:04:f4:7d:14:87:ee:24:b1:d7:
                    59:97:3d:59:29:bf:3a:0e:d6:ce:29:ae:91:46:52:
                    73:5a:a8:08:db:e5:fb:35:41:86:0e:0b:10:ec:c9:
                    c6:9e:ad:9f:57:95:39:0c:c1:e8:bd:4c:06:f3:a8:
                    bd:3f:1c:bd:df:c0:06:7e:72:2d:9c:be:0f:05:73:
                    db:89:46:68:80:fb:60:6b:85:8e:8a:f2:58:13:3c:
                    24:3e:69
                Exponent: 65537 (0x10001)
                No PSS parameter restrictions
        X509v3 extensions:
            X509v3 Subject Key Identifier: 
                8A:CA:A3:22:BA:25:7F:82:73:AD:81:E8:9F:4E:66:BC:68:33:E4:33
            X509v3 Authority Key Identifier: 
                keyid:5D:65:18:5B:A7:9D:E5:25:A9:20:0E:7D:17:48:ED:08:33:A5:FF:BA
                DirName:/C=DE/O=OSS Release/OU=Development/CN=trustme General Root CA
                serial:3F:94:D8:3E:9B:F3:85:91:40:2B:4D:EC:50:EA:F7:4B:C6:3E:95:E2

            X509v3 Basic Constraints: critical
                CA:TRUE
            X509v3 Key Usage: 
                Digital Signature, Certificate Sign, CRL Sign
            Authority Information Access: 
                CA Issuers - URI:http://localhost/dummy.cer
                OCSP - URI:http://localhost/dummy-ocsp

            X509v3 CRL Distribution Points: 

                Full Name:
                  URI:http://localhost/dummy.crl

    Signature Algorithm: sha256WithRSAEncryption
         44:4f:22:53:32:16:c9:bc:b9:a4:aa:10:e6:97:06:cd:2b:a5:
         64:32:7c:d0:f5:ed:72:6d:69:c3:97:c1:a8:75:6a:66:16:33:
         57:24:53:48:bf:05:9b:5e:1e:50:44:b2:3a:4b:6f:de:7b:a0:
         ea:13:ff:64:c0:13:1b:de:bb:42:6e:ad:6f:6c:be:22:cf:f4:
         a9:21:55:ec:36:3a:64:9b:88:52:c4:b8:6b:c4:06:18:ac:96:
         4c:78:4c:34:48:90:4a:a1:fb:63:ca:63:c1:c0:2a:f1:af:c0:
         46:d9:ca:b4:44:50:75:1c:c1:fc:60:21:4f:05:47:a1:60:07:
         97:58:ac:86:e5:0c:a5:d5:c8:bc:3b:f3:a0:3b:c5:80:97:33:
         20:1a:da:e2:3a:b0:ff:65:6a:2b:36:f7:1f:be:41:81:04:41:
         aa:58:1c:84:50:c4:a3:a8:d7:e9:ca:66:5a:e9:77:0e:91:28:
         d9:a1:d7:2f:07:08:ee:8c:d0:0e:08:63:14:a7:66:5f:72:bc:
         56:41:bd:60:61:a7:d1:7a:94:49:66:5a:de:1a:d1:2a:c6:25:
         fb:fe:5f:ed:16:64:1f:73:67:dc:1e:4e:9d:40:4e:d9:32:47:
         32:13:62:8d:ea:a0:a0:21:61:83:26:e2:31:09:cf:ce:1e:b9:
         a5:73:c1:f1:0d:66:67:46:98:73:70:d2:c0:0b:49:d8:8d:72:
         6a:e8:76:09:41:8d:6b:95:61:c6:38:88:08:e5:1b:51:05:00:
         30:9d:7c:05:a1:ba:e8:6e:5b:6e:5a:15:18:ad:8e:96:b0:a7:
         3b:61:05:02:5b:1a:2f:54:16:53:90:fa:ad:14:66:6b:18:c2:
         de:ca:15:fc:55:49:e4:f5:fb:e9:a6:30:be:a5:f0:b5:26:01:
         ad:60:c1:32:2c:1d:36:c5:12:f2:8a:67:65:d5:21:2b:3c:b0:
         ab:f8:88:71:ab:87:82:73:a1:69:a1:8a:91:c5:12:fa:47:48:
         7f:71:89:26:12:8e:65:d2:bf:07:ae:22:92:6c:9b:d0:95:71:
         6c:da:1b:ca:28:ef:76:3d:f4:d7:dc:c8:5a:3e:e1:b9:bf:cf:
         ed:1f:56:78:7d:ea:2d:e3:54:8f:ed:80:48:d6:f8:27:47:24:
         2e:1f:ab:79:73:6e:41:36:5b:a8:dd:26:dc:df:af:8c:85:9f:
         62:52:cd:e9:92:60:46:23:4c:16:3d:ef:83:93:00:0a:69:35:
         46:31:72:92:f0:3f:3b:32:c7:c8:ae:84:5a:b9:9b:cb:49:2f:
         8b:d3:58:7d:ba:73:d8:87:5f:1e:bd:04:ff:cf:ad:7e:db:4a:
         73:57:65:c6:aa:c7:e8:28
-----BEGIN CERTIFICATE-----
MIIGqjCCBJKgAwIBAgIUNNj2P98WHuNrpW89AWNc4r2Hs1owDQYJKoZIhvcNAQEL
BQAwWzELMAkGA1UEBhMCREUxFDASBgNVBAoMC09TUyBSZWxlYXNlMRQwEgYDVQQL
DAtEZXZlbG9wbWVudDEgMB4GA1UEAwwXdHJ1c3RtZSBHZW5lcmFsIFJvb3QgQ0Ew
HhcNMjExMTE5MTU1OTE4WhcNMjcxMTE4MTU1OTE4WjBXMQswCQYDVQQGEwJERTEU
MBIGA1UECgwLT1NTIFJlbGVhc2UxFDASBgNVBAsMC0RldmVsb3BtZW50MRwwGgYD
VQQDDBN0cnVzdG1lIFVzZXIgU3ViIENBMIICIDALBgkqhkiG9w0BAQoDggIPADCC
AgoCggIBAMKq445wFGnaqJW4YIlx7bGsyXdbxK7IImIZnexMf7kOHRJoloDTNSBL
2vMfRatGpU6mcJA7+ATjtTJqowbSXFpiUCuB5RJJVhfYEzXA32fuiCFhtDy0ZIUc
KFRUb+a1Tmkfsb7EeE2qiFKvhGlkticgkv/MclPsGAabRVg2WgyqHenduWa+d5KI
ecKxGduLN6x5QNdcS0rqtRy90JL+q2DYCAO01OhoORvZe0j1Wasz9AHWsYLUzZUV
YBZvFOVunz4qEK4bAc0At81IJ+mlRUpi4q2NPjpGp0NFuEUx+X0mhSNu8AO89edn
ycNd1RhN+LM06Tokzg06EpEt5+gxKWuLHQTSC0on0w07UYj93s9T2NFxL+75x7TX
8wxdZVQjm4IK/5oiVnktFqH2JKGFJlz/YhZw9+erLvYqg7dtNcZg7wpj/xNUb/pH
jsBIreovA7zR/X8UimWaTkDa/vTXqSNkjp50NylO6jqu1jZW01WlM82XHtP0fMls
dV/Hjs0mRDWKe2AIc+RVcvy4KCpeaXrirIYcBxQrjNiY96ODFv8cL4liweQByZSz
BPR9FIfuJLHXWZc9WSm/Og7WzimukUZSc1qoCNvl+zVBhg4LEOzJxp6tn1eVOQzB
6L1MBvOovT8cvd/ABn5yLZy+DwVz24lGaID7YGuFjoryWBM8JD5pAgMBAAGjggFq
MIIBZjAdBgNVHQ4EFgQUisqjIrolf4JzrYHon05mvGgz5DMwgZgGA1UdIwSBkDCB
jYAUXWUYW6ed5SWpIA59F0jtCDOl/7qhX6RdMFsxCzAJBgNVBAYTAkRFMRQwEgYD
VQQKDAtPU1MgUmVsZWFzZTEUMBIGA1UECwwLRGV2ZWxvcG1lbnQxIDAeBgNVBAMM
F3RydXN0bWUgR2VuZXJhbCBSb290IENBghQ/lNg+m/OFkUArTexQ6vdLxj6V4jAP
BgNVHRMBAf8EBTADAQH/MAsGA1UdDwQEAwIBhjBfBggrBgEFBQcBAQRTMFEwJgYI
KwYBBQUHMAKGGmh0dHA6Ly9sb2NhbGhvc3QvZHVtbXkuY2VyMCcGCCsGAQUFBzAB
hhtodHRwOi8vbG9jYWxob3N0L2R1bW15LW9jc3AwKwYDVR0fBCQwIjAgoB6gHIYa
aHR0cDovL2xvY2FsaG9zdC9kdW1teS5jcmwwDQYJKoZIhvcNAQELBQADggIBAERP
IlMyFsm8uaSqEOaXBs0rpWQyfND17XJtacOXwah1amYWM1ckU0i/BZteHlBEsjpL
b957oOoT/2TAExveu0JurW9sviLP9KkhVew2OmSbiFLEuGvEBhislkx4TDRIkEqh
+2PKY8HAKvGvwEbZyrREUHUcwfxgIU8FR6FgB5dYrIblDKXVyLw786A7xYCXMyAa
2uI6sP9lais29x++QYEEQapYHIRQxKOo1+nKZlrpdw6RKNmh1y8HCO6M0A4IYxSn
Zl9yvFZBvWBhp9F6lElmWt4a0SrGJfv+X+0WZB9zZ9weTp1ATtkyRzITYo3qoKAh
YYMm4jEJz84euaVzwfENZmdGmHNw0sALSdiNcmrodglBjWuVYcY4iAjlG1EFADCd
fAWhuuhuW25aFRitjpawpzthBQJbGi9UFlOQ+q0UZmsYwt7KFfxVSeT1++mmML6l
8LUmAa1gwTIsHTbFEvKKZ2XVISs8sKv4iHGrh4JzoWmhipHFEvpHSH9xiSYSjmXS
vweuIpJsm9CVcWzaG8oo73Y99NfcyFo+4bm/z+0fVnh96i3jVI/tgEjW+CdHJC4f
q3lzbkE2W6jdJtzfr4yFn2JSzemSYEYjTBY974OTAAppNUYxcpLwPzsyx8iuhFq5
m8tJL4vTWH26c9iHXx69BP/PrX7bSnNXZcaqx+go
-----END CERTIFICATE-----
-----BEGIN CERTIFICATE-----
MIIF7TCCA9WgAwIBAgIUP5TYPpvzhZFAK03sUOr3S8Y+leIwDQYJKoZIhvcNAQEL
BQAwWzELMAkGA1UEBhMCREUxFDASBgNVBAoMC09TUyBSZWxlYXNlMRQwEgYDVQQL
DAtEZXZlbG9wbWVudDEgMB4GA1UEAwwXdHJ1c3RtZSBHZW5lcmFsIFJvb3QgQ0Ew
HhcNMjExMTE5MTU1OTE3WhcNMzExMTE3MTU1OTE3WjBbMQswCQYDVQQGEwJERTEU
MBIGA1UECgwLT1NTIFJlbGVhc2UxFDASBgNVBAsMC0RldmVsb3BtZW50MSAwHgYD
VQQDDBd0cnVzdG1lIEdlbmVyYWwgUm9vdCBDQTCCAiIwDQYJKoZIhvcNAQEBBQAD
ggIPADCCAgoCggIBAKrQbLy4uNvA1BgqowC1lmJzMxEl1cTnAPrrxtPqzJqtG4cd
sx0wxQcJviyQ7E3hK0qKU+qUxzzVnMAUhfT8ZdlN8gOsQ7EQZLSTr2sZF9JHL78H
FbiBVpcJLC8cTJwtsUr7S/YsKqNnllQDgatHsWAHHxnwr2Agjgxw4VvtakmAa6L5
uEfJ86iDQ+s8URo7kD/P4V51zqUsm3UUtmKtlzLY3EeINquwo+Eg2Kr/PlufNcdw
JFKakjk7JuQv9JruDp7j1Lduf784dx7Dq7RwonGf17rqCrcRtPg5u1m52S0SXLqK
tHzdOzb65dTjETTBbaG2mLGeNTsm3N/oX70C2yYD4CH537jE3VgWMABxvxT6B2Gc
sgh0fz8nxfTj7ecAqDuio9/KKn6vYa/mnmHT+1NdeDw5crgXPZEobgmUlImWHg93
oPSlK4evvnIXVrzC3ddlHEBW7PRbu/h2xK5lWDRIn8wQP+EnQNuGHhTet0Mbluir
g4mjslk1O/RHi3nO/YU7Q35jsMoDt/qb4G0SqV9MNoY8x8kwL0/zh2Fa2LToXnkf
TMdFDn0+l+/WC1j5TUw6GjJDhmewCEgc3C6eBPepLCRNTtWKDePbZdsFMvMuuQTV
26v0L2f40AARcT83yuhvDJC0BfgcO0kM/WgThuxfXG/G/4zJBiQVmVU6pgDLAgMB
AAGjgagwgaUwHQYDVR0OBBYEFF1lGFunneUlqSAOfRdI7Qgzpf+6MA8GA1UdEwEB
/wQFMAMBAf8wDgYDVR0PAQH/BAQDAgEGMDYGCCsGAQUFBwEBBCowKDAmBggrBgEF
BQcwAoYaaHR0cDovL2xvY2FsaG9zdC9kdW1teS5jZXIwKwYDVR0fBCQwIjAgoB6g
HIYaaHR0cDovL2xvY2FsaG9zdC9kdW1teS5jcmwwDQYJKoZIhvcNAQELBQADggIB
AGstY4py5v5uKsfJA1tJWWSJxGbhlXwuSM4dlQK2+MZmmbwFxX2MYNsL2j7671MS
H7W+QBo0hdi9jEojh7vJ1iPfnDmJN6Qopo9OooT09JUgDKDGhqdpfvTln4gWPtzm
LXAEp5zX6k45St4RwcXTp7J/TpjNT1//5Q1PhUN/4tDqKxkq2YisjlyZXaDZQ9ej
eGh0fHKdxlXu4Q5so//2ivOuQ2JpJlBP0t1QG1gldZGgTMhuNaqqsp9RsyQoZ6T6
Bw7nUZ5Sh8is82OntybNuQowREGiyxBHL7thiPo6S+h0Xy+lwYz6AZlYIbGffEdD
BCHmRZQDgwUDxcZE0iuIIcUUpHipxFjOJ4Zri8JFeSrMgcypa5eQiW09SgQbAP+T
mOp9IAgQAhFKSbEAk1lnIlzOUQ4QR+YZjVxZ9l9Qzx3W0Ey8zckxvz5+UTGPe2+k
RDNsnZlgc0hejg6rhixsoOq42Md6ASfFVpYsoUVgEsn5PZbKUlmFgqlp4l4gOly+
96Ee4uTPXT0PnyF4STDaKJ7pak1UmoDfw5XrOcCYxZWNStueRnUsc028pRkPrDWo
nqRhToh6hrV+vHo3bGipB7PYJw4BX1rgAff5ummEIcVmRfsO/qHysiin8/PeKdTn
Gar2xKONXGcoxp0tAqoGVaLd0fyv/3NjwfZorVdQD/9V
-----END CERTIFICATE-----
